

Microchip MPLAB XC8 Assembler V2.36 build 20220127204148 
                                                                                               Sun Aug 14 09:45:59 2022

Microchip MPLAB XC8 C Compiler v2.36 (Free license) build 20220127204148 Og1 
     1                           	processor	16F1827
     2                           	pagewidth 120
     3                           	opt	flic
     4                           	psect	stringtext1,global,class=STRCODE,delta=2,noexec
     5                           	psect	stringtext2,global,class=STRCODE,delta=2,noexec
     6                           	psect	stringtext3,global,class=STRCODE,delta=2,noexec
     7                           	psect	nvBANK0,global,class=BANK0,space=1,delta=1,noexec
     8                           	psect	nvBANK1,global,class=BANK1,space=1,delta=1,noexec
     9                           	psect	cinit,global,class=CODE,merge=1,delta=2
    10                           	psect	bssBANK0,global,class=BANK0,space=1,delta=1,noexec
    11                           	psect	cstackCOMMON,global,class=COMMON,space=1,delta=1,noexec
    12                           	psect	cstackBANK0,global,class=BANK0,space=1,delta=1,noexec
    13                           	psect	maintext,global,class=CODE,merge=1,split=1,delta=2
    14                           	psect	text1,local,class=CODE,merge=1,delta=2
    15                           	psect	text2,local,class=CODE,merge=1,delta=2
    16                           	psect	text3,local,class=CODE,merge=1,delta=2
    17                           	psect	text4,local,class=CODE,merge=1,delta=2,group=1
    18                           	psect	text5,local,class=CODE,merge=1,delta=2,group=1
    19                           	psect	text6,local,class=CODE,merge=1,delta=2,group=1
    20                           	psect	text7,local,class=CODE,merge=1,delta=2,group=1
    21                           	psect	text8,local,class=CODE,merge=1,delta=2
    22                           	psect	text9,local,class=CODE,merge=1,delta=2
    23                           	psect	text10,local,class=CODE,merge=1,delta=2
    24                           	psect	text11,local,class=CODE,merge=1,delta=2,group=1
    25                           	psect	text12,local,class=CODE,merge=1,delta=2
    26                           	psect	text13,local,class=CODE,merge=1,delta=2
    27                           	psect	text14,local,class=CODE,merge=1,delta=2
    28                           	psect	text15,local,class=CODE,merge=1,delta=2
    29                           	psect	text16,local,class=CODE,merge=1,delta=2
    30                           	psect	text17,local,class=CODE,merge=1,delta=2
    31                           	psect	text18,local,class=CODE,merge=1,delta=2
    32                           	psect	text19,local,class=CODE,merge=1,delta=2
    33                           	psect	text20,local,class=CODE,merge=1,delta=2
    34                           	psect	text21,local,class=CODE,merge=1,delta=2
    35                           	psect	text22,local,class=CODE,merge=1,delta=2
    36                           	psect	intentry,global,class=CODE,delta=2
    37                           	psect	text24,local,class=CODE,merge=1,delta=2
    38                           	psect	text25,local,class=CODE,merge=1,delta=2
    39                           	psect	idloc,global,abs,ovrld,class=IDLOC,space=5,delta=2,noexec
    40                           	psect	config,global,abs,ovrld,class=CONFIG,space=4,delta=2,noexec
    41                           	dabs	1,0x7E,2
    42  0000                     
    43                           ; Version 2.40
    44                           ; Generated 17/11/2021 GMT
    45                           ; 
    46                           ; Copyright © 2021, Microchip Technology Inc. and its subsidiaries ("Microchip")
    47                           ; All rights reserved.
    48                           ; 
    49                           ; This software is developed by Microchip Technology Inc. and its subsidiaries ("Microch
      +                          ip").
    50                           ; 
    51                           ; Redistribution and use in source and binary forms, with or without modification, are
    52                           ; permitted provided that the following conditions are met:
    53                           ; 
    54                           ;     1. Redistributions of source code must retain the above copyright notice, this lis
      +                          t of
    55                           ;        conditions and the following disclaimer.
    56                           ; 
    57                           ;     2. Redistributions in binary form must reproduce the above copyright notice, this 
      +                          list
    58                           ;        of conditions and the following disclaimer in the documentation and/or other
    59                           ;        materials provided with the distribution. Publication is not required when
    60                           ;        this file is used in an embedded application.
    61                           ; 
    62                           ;     3. Microchip's name may not be used to endorse or promote products derived from th
      +                          is
    63                           ;        software without specific prior written permission.
    64                           ; 
    65                           ; THIS SOFTWARE IS PROVIDED BY MICROCHIP "AS IS" AND ANY EXPRESS OR IMPLIED WARRANTIES,
    66                           ; INCLUDING, BUT NOT LIMITED TO, THE IMPLIED WARRANTIES OF MERCHANTABILITY AND FITNESS F
      +                          OR
    67                           ; PURPOSE ARE DISCLAIMED.  IN NO EVENT SHALL MICROCHIP BE LIABLE FOR ANY DIRECT, INDIREC
      +                          T,
    68                           ; INCIDENTAL, SPECIAL, EXEMPLARY, OR CONSEQUENTIAL DAMAGES (INCLUDING BUT NOT LIMITED TO
    69                           ; PROCUREMENT OF SUBSTITUTE GOODS OR SERVICES; LOSS OF USE, DATA OR PROFITS; OR BUSINESS
    70                           ; INTERRUPTION) HOWSOEVER CAUSED AND ON ANY THEORY OF LIABILITY, WHETHER IN CONTRACT, ST
      +                          RICT
    71                           ; LIABILITY, OR TORT (INCLUDING NEGLIGENCE OR OTHERWISE) ARISING IN ANY WAY OUT OF THE U
      +                          SE OF
    72                           ; THIS SOFTWARE, EVEN IF ADVISED OF THE POSSIBILITY OF SUCH DAMAGE.
    73                           ; 
    74                           ; 
    75                           ; Code-generator required, PIC16F1827 Definitions
    76                           ; 
    77                           ; SFR Addresses
    78  0000                     	;# 
    79  0001                     	;# 
    80  0002                     	;# 
    81  0003                     	;# 
    82  0004                     	;# 
    83  0005                     	;# 
    84  0006                     	;# 
    85  0007                     	;# 
    86  0008                     	;# 
    87  0009                     	;# 
    88  000A                     	;# 
    89  000B                     	;# 
    90  000C                     	;# 
    91  000D                     	;# 
    92  0011                     	;# 
    93  0012                     	;# 
    94  0013                     	;# 
    95  0014                     	;# 
    96  0015                     	;# 
    97  0016                     	;# 
    98  0016                     	;# 
    99  0017                     	;# 
   100  0018                     	;# 
   101  0019                     	;# 
   102  001A                     	;# 
   103  001B                     	;# 
   104  001C                     	;# 
   105  001E                     	;# 
   106  001F                     	;# 
   107  008C                     	;# 
   108  008D                     	;# 
   109  0091                     	;# 
   110  0092                     	;# 
   111  0093                     	;# 
   112  0094                     	;# 
   113  0095                     	;# 
   114  0096                     	;# 
   115  0097                     	;# 
   116  0098                     	;# 
   117  0099                     	;# 
   118  009A                     	;# 
   119  009B                     	;# 
   120  009B                     	;# 
   121  009C                     	;# 
   122  009D                     	;# 
   123  009E                     	;# 
   124  010C                     	;# 
   125  010D                     	;# 
   126  0111                     	;# 
   127  0112                     	;# 
   128  0113                     	;# 
   129  0114                     	;# 
   130  0115                     	;# 
   131  0116                     	;# 
   132  0117                     	;# 
   133  0118                     	;# 
   134  0119                     	;# 
   135  011A                     	;# 
   136  011B                     	;# 
   137  011D                     	;# 
   138  011E                     	;# 
   139  018C                     	;# 
   140  018D                     	;# 
   141  0191                     	;# 
   142  0191                     	;# 
   143  0192                     	;# 
   144  0193                     	;# 
   145  0193                     	;# 
   146  0193                     	;# 
   147  0194                     	;# 
   148  0195                     	;# 
   149  0196                     	;# 
   150  0199                     	;# 
   151  019A                     	;# 
   152  019B                     	;# 
   153  019B                     	;# 
   154  019B                     	;# 
   155  019B                     	;# 
   156  019C                     	;# 
   157  019C                     	;# 
   158  019D                     	;# 
   159  019E                     	;# 
   160  019F                     	;# 
   161  020C                     	;# 
   162  020D                     	;# 
   163  0211                     	;# 
   164  0211                     	;# 
   165  0212                     	;# 
   166  0212                     	;# 
   167  0213                     	;# 
   168  0213                     	;# 
   169  0214                     	;# 
   170  0214                     	;# 
   171  0215                     	;# 
   172  0215                     	;# 
   173  0215                     	;# 
   174  0216                     	;# 
   175  0216                     	;# 
   176  0217                     	;# 
   177  0217                     	;# 
   178  0219                     	;# 
   179  021A                     	;# 
   180  021B                     	;# 
   181  021C                     	;# 
   182  021D                     	;# 
   183  021E                     	;# 
   184  021F                     	;# 
   185  0291                     	;# 
   186  0291                     	;# 
   187  0292                     	;# 
   188  0293                     	;# 
   189  0294                     	;# 
   190  0295                     	;# 
   191  0295                     	;# 
   192  0296                     	;# 
   193  0298                     	;# 
   194  0298                     	;# 
   195  0299                     	;# 
   196  029A                     	;# 
   197  029B                     	;# 
   198  029C                     	;# 
   199  029C                     	;# 
   200  029D                     	;# 
   201  029E                     	;# 
   202  029E                     	;# 
   203  0311                     	;# 
   204  0311                     	;# 
   205  0312                     	;# 
   206  0313                     	;# 
   207  0318                     	;# 
   208  0318                     	;# 
   209  0319                     	;# 
   210  031A                     	;# 
   211  0394                     	;# 
   212  0395                     	;# 
   213  0396                     	;# 
   214  039A                     	;# 
   215  039C                     	;# 
   216  039D                     	;# 
   217  039E                     	;# 
   218  039F                     	;# 
   219  0415                     	;# 
   220  0416                     	;# 
   221  0417                     	;# 
   222  041C                     	;# 
   223  041D                     	;# 
   224  041E                     	;# 
   225  0FE4                     	;# 
   226  0FE5                     	;# 
   227  0FE6                     	;# 
   228  0FE7                     	;# 
   229  0FE8                     	;# 
   230  0FE9                     	;# 
   231  0FEA                     	;# 
   232  0FEB                     	;# 
   233  0FED                     	;# 
   234  0FEE                     	;# 
   235  0FEF                     	;# 
   236  0000                     	;# 
   237  0001                     	;# 
   238  0002                     	;# 
   239  0003                     	;# 
   240  0004                     	;# 
   241  0005                     	;# 
   242  0006                     	;# 
   243  0007                     	;# 
   244  0008                     	;# 
   245  0009                     	;# 
   246  000A                     	;# 
   247  000B                     	;# 
   248  000C                     	;# 
   249  000D                     	;# 
   250  0011                     	;# 
   251  0012                     	;# 
   252  0013                     	;# 
   253  0014                     	;# 
   254  0015                     	;# 
   255  0016                     	;# 
   256  0016                     	;# 
   257  0017                     	;# 
   258  0018                     	;# 
   259  0019                     	;# 
   260  001A                     	;# 
   261  001B                     	;# 
   262  001C                     	;# 
   263  001E                     	;# 
   264  001F                     	;# 
   265  008C                     	;# 
   266  008D                     	;# 
   267  0091                     	;# 
   268  0092                     	;# 
   269  0093                     	;# 
   270  0094                     	;# 
   271  0095                     	;# 
   272  0096                     	;# 
   273  0097                     	;# 
   274  0098                     	;# 
   275  0099                     	;# 
   276  009A                     	;# 
   277  009B                     	;# 
   278  009B                     	;# 
   279  009C                     	;# 
   280  009D                     	;# 
   281  009E                     	;# 
   282  010C                     	;# 
   283  010D                     	;# 
   284  0111                     	;# 
   285  0112                     	;# 
   286  0113                     	;# 
   287  0114                     	;# 
   288  0115                     	;# 
   289  0116                     	;# 
   290  0117                     	;# 
   291  0118                     	;# 
   292  0119                     	;# 
   293  011A                     	;# 
   294  011B                     	;# 
   295  011D                     	;# 
   296  011E                     	;# 
   297  018C                     	;# 
   298  018D                     	;# 
   299  0191                     	;# 
   300  0191                     	;# 
   301  0192                     	;# 
   302  0193                     	;# 
   303  0193                     	;# 
   304  0193                     	;# 
   305  0194                     	;# 
   306  0195                     	;# 
   307  0196                     	;# 
   308  0199                     	;# 
   309  019A                     	;# 
   310  019B                     	;# 
   311  019B                     	;# 
   312  019B                     	;# 
   313  019B                     	;# 
   314  019C                     	;# 
   315  019C                     	;# 
   316  019D                     	;# 
   317  019E                     	;# 
   318  019F                     	;# 
   319  020C                     	;# 
   320  020D                     	;# 
   321  0211                     	;# 
   322  0211                     	;# 
   323  0212                     	;# 
   324  0212                     	;# 
   325  0213                     	;# 
   326  0213                     	;# 
   327  0214                     	;# 
   328  0214                     	;# 
   329  0215                     	;# 
   330  0215                     	;# 
   331  0215                     	;# 
   332  0216                     	;# 
   333  0216                     	;# 
   334  0217                     	;# 
   335  0217                     	;# 
   336  0219                     	;# 
   337  021A                     	;# 
   338  021B                     	;# 
   339  021C                     	;# 
   340  021D                     	;# 
   341  021E                     	;# 
   342  021F                     	;# 
   343  0291                     	;# 
   344  0291                     	;# 
   345  0292                     	;# 
   346  0293                     	;# 
   347  0294                     	;# 
   348  0295                     	;# 
   349  0295                     	;# 
   350  0296                     	;# 
   351  0298                     	;# 
   352  0298                     	;# 
   353  0299                     	;# 
   354  029A                     	;# 
   355  029B                     	;# 
   356  029C                     	;# 
   357  029C                     	;# 
   358  029D                     	;# 
   359  029E                     	;# 
   360  029E                     	;# 
   361  0311                     	;# 
   362  0311                     	;# 
   363  0312                     	;# 
   364  0313                     	;# 
   365  0318                     	;# 
   366  0318                     	;# 
   367  0319                     	;# 
   368  031A                     	;# 
   369  0394                     	;# 
   370  0395                     	;# 
   371  0396                     	;# 
   372  039A                     	;# 
   373  039C                     	;# 
   374  039D                     	;# 
   375  039E                     	;# 
   376  039F                     	;# 
   377  0415                     	;# 
   378  0416                     	;# 
   379  0417                     	;# 
   380  041C                     	;# 
   381  041D                     	;# 
   382  041E                     	;# 
   383  0FE4                     	;# 
   384  0FE5                     	;# 
   385  0FE6                     	;# 
   386  0FE7                     	;# 
   387  0FE8                     	;# 
   388  0FE9                     	;# 
   389  0FEA                     	;# 
   390  0FEB                     	;# 
   391  0FED                     	;# 
   392  0FEE                     	;# 
   393  0FEF                     	;# 
   394  0000                     	;# 
   395  0001                     	;# 
   396  0002                     	;# 
   397  0003                     	;# 
   398  0004                     	;# 
   399  0005                     	;# 
   400  0006                     	;# 
   401  0007                     	;# 
   402  0008                     	;# 
   403  0009                     	;# 
   404  000A                     	;# 
   405  000B                     	;# 
   406  000C                     	;# 
   407  000D                     	;# 
   408  0011                     	;# 
   409  0012                     	;# 
   410  0013                     	;# 
   411  0014                     	;# 
   412  0015                     	;# 
   413  0016                     	;# 
   414  0016                     	;# 
   415  0017                     	;# 
   416  0018                     	;# 
   417  0019                     	;# 
   418  001A                     	;# 
   419  001B                     	;# 
   420  001C                     	;# 
   421  001E                     	;# 
   422  001F                     	;# 
   423  008C                     	;# 
   424  008D                     	;# 
   425  0091                     	;# 
   426  0092                     	;# 
   427  0093                     	;# 
   428  0094                     	;# 
   429  0095                     	;# 
   430  0096                     	;# 
   431  0097                     	;# 
   432  0098                     	;# 
   433  0099                     	;# 
   434  009A                     	;# 
   435  009B                     	;# 
   436  009B                     	;# 
   437  009C                     	;# 
   438  009D                     	;# 
   439  009E                     	;# 
   440  010C                     	;# 
   441  010D                     	;# 
   442  0111                     	;# 
   443  0112                     	;# 
   444  0113                     	;# 
   445  0114                     	;# 
   446  0115                     	;# 
   447  0116                     	;# 
   448  0117                     	;# 
   449  0118                     	;# 
   450  0119                     	;# 
   451  011A                     	;# 
   452  011B                     	;# 
   453  011D                     	;# 
   454  011E                     	;# 
   455  018C                     	;# 
   456  018D                     	;# 
   457  0191                     	;# 
   458  0191                     	;# 
   459  0192                     	;# 
   460  0193                     	;# 
   461  0193                     	;# 
   462  0193                     	;# 
   463  0194                     	;# 
   464  0195                     	;# 
   465  0196                     	;# 
   466  0199                     	;# 
   467  019A                     	;# 
   468  019B                     	;# 
   469  019B                     	;# 
   470  019B                     	;# 
   471  019B                     	;# 
   472  019C                     	;# 
   473  019C                     	;# 
   474  019D                     	;# 
   475  019E                     	;# 
   476  019F                     	;# 
   477  020C                     	;# 
   478  020D                     	;# 
   479  0211                     	;# 
   480  0211                     	;# 
   481  0212                     	;# 
   482  0212                     	;# 
   483  0213                     	;# 
   484  0213                     	;# 
   485  0214                     	;# 
   486  0214                     	;# 
   487  0215                     	;# 
   488  0215                     	;# 
   489  0215                     	;# 
   490  0216                     	;# 
   491  0216                     	;# 
   492  0217                     	;# 
   493  0217                     	;# 
   494  0219                     	;# 
   495  021A                     	;# 
   496  021B                     	;# 
   497  021C                     	;# 
   498  021D                     	;# 
   499  021E                     	;# 
   500  021F                     	;# 
   501  0291                     	;# 
   502  0291                     	;# 
   503  0292                     	;# 
   504  0293                     	;# 
   505  0294                     	;# 
   506  0295                     	;# 
   507  0295                     	;# 
   508  0296                     	;# 
   509  0298                     	;# 
   510  0298                     	;# 
   511  0299                     	;# 
   512  029A                     	;# 
   513  029B                     	;# 
   514  029C                     	;# 
   515  029C                     	;# 
   516  029D                     	;# 
   517  029E                     	;# 
   518  029E                     	;# 
   519  0311                     	;# 
   520  0311                     	;# 
   521  0312                     	;# 
   522  0313                     	;# 
   523  0318                     	;# 
   524  0318                     	;# 
   525  0319                     	;# 
   526  031A                     	;# 
   527  0394                     	;# 
   528  0395                     	;# 
   529  0396                     	;# 
   530  039A                     	;# 
   531  039C                     	;# 
   532  039D                     	;# 
   533  039E                     	;# 
   534  039F                     	;# 
   535  0415                     	;# 
   536  0416                     	;# 
   537  0417                     	;# 
   538  041C                     	;# 
   539  041D                     	;# 
   540  041E                     	;# 
   541  0FE4                     	;# 
   542  0FE5                     	;# 
   543  0FE6                     	;# 
   544  0FE7                     	;# 
   545  0FE8                     	;# 
   546  0FE9                     	;# 
   547  0FEA                     	;# 
   548  0FEB                     	;# 
   549  0FED                     	;# 
   550  0FEE                     	;# 
   551  0FEF                     	;# 
   552  0000                     	;# 
   553  0001                     	;# 
   554  0002                     	;# 
   555  0003                     	;# 
   556  0004                     	;# 
   557  0005                     	;# 
   558  0006                     	;# 
   559  0007                     	;# 
   560  0008                     	;# 
   561  0009                     	;# 
   562  000A                     	;# 
   563  000B                     	;# 
   564  000C                     	;# 
   565  000D                     	;# 
   566  0011                     	;# 
   567  0012                     	;# 
   568  0013                     	;# 
   569  0014                     	;# 
   570  0015                     	;# 
   571  0016                     	;# 
   572  0016                     	;# 
   573  0017                     	;# 
   574  0018                     	;# 
   575  0019                     	;# 
   576  001A                     	;# 
   577  001B                     	;# 
   578  001C                     	;# 
   579  001E                     	;# 
   580  001F                     	;# 
   581  008C                     	;# 
   582  008D                     	;# 
   583  0091                     	;# 
   584  0092                     	;# 
   585  0093                     	;# 
   586  0094                     	;# 
   587  0095                     	;# 
   588  0096                     	;# 
   589  0097                     	;# 
   590  0098                     	;# 
   591  0099                     	;# 
   592  009A                     	;# 
   593  009B                     	;# 
   594  009B                     	;# 
   595  009C                     	;# 
   596  009D                     	;# 
   597  009E                     	;# 
   598  010C                     	;# 
   599  010D                     	;# 
   600  0111                     	;# 
   601  0112                     	;# 
   602  0113                     	;# 
   603  0114                     	;# 
   604  0115                     	;# 
   605  0116                     	;# 
   606  0117                     	;# 
   607  0118                     	;# 
   608  0119                     	;# 
   609  011A                     	;# 
   610  011B                     	;# 
   611  011D                     	;# 
   612  011E                     	;# 
   613  018C                     	;# 
   614  018D                     	;# 
   615  0191                     	;# 
   616  0191                     	;# 
   617  0192                     	;# 
   618  0193                     	;# 
   619  0193                     	;# 
   620  0193                     	;# 
   621  0194                     	;# 
   622  0195                     	;# 
   623  0196                     	;# 
   624  0199                     	;# 
   625  019A                     	;# 
   626  019B                     	;# 
   627  019B                     	;# 
   628  019B                     	;# 
   629  019B                     	;# 
   630  019C                     	;# 
   631  019C                     	;# 
   632  019D                     	;# 
   633  019E                     	;# 
   634  019F                     	;# 
   635  020C                     	;# 
   636  020D                     	;# 
   637  0211                     	;# 
   638  0211                     	;# 
   639  0212                     	;# 
   640  0212                     	;# 
   641  0213                     	;# 
   642  0213                     	;# 
   643  0214                     	;# 
   644  0214                     	;# 
   645  0215                     	;# 
   646  0215                     	;# 
   647  0215                     	;# 
   648  0216                     	;# 
   649  0216                     	;# 
   650  0217                     	;# 
   651  0217                     	;# 
   652  0219                     	;# 
   653  021A                     	;# 
   654  021B                     	;# 
   655  021C                     	;# 
   656  021D                     	;# 
   657  021E                     	;# 
   658  021F                     	;# 
   659  0291                     	;# 
   660  0291                     	;# 
   661  0292                     	;# 
   662  0293                     	;# 
   663  0294                     	;# 
   664  0295                     	;# 
   665  0295                     	;# 
   666  0296                     	;# 
   667  0298                     	;# 
   668  0298                     	;# 
   669  0299                     	;# 
   670  029A                     	;# 
   671  029B                     	;# 
   672  029C                     	;# 
   673  029C                     	;# 
   674  029D                     	;# 
   675  029E                     	;# 
   676  029E                     	;# 
   677  0311                     	;# 
   678  0311                     	;# 
   679  0312                     	;# 
   680  0313                     	;# 
   681  0318                     	;# 
   682  0318                     	;# 
   683  0319                     	;# 
   684  031A                     	;# 
   685  0394                     	;# 
   686  0395                     	;# 
   687  0396                     	;# 
   688  039A                     	;# 
   689  039C                     	;# 
   690  039D                     	;# 
   691  039E                     	;# 
   692  039F                     	;# 
   693  0415                     	;# 
   694  0416                     	;# 
   695  0417                     	;# 
   696  041C                     	;# 
   697  041D                     	;# 
   698  041E                     	;# 
   699  0FE4                     	;# 
   700  0FE5                     	;# 
   701  0FE6                     	;# 
   702  0FE7                     	;# 
   703  0FE8                     	;# 
   704  0FE9                     	;# 
   705  0FEA                     	;# 
   706  0FEB                     	;# 
   707  0FED                     	;# 
   708  0FEE                     	;# 
   709  0FEF                     	;# 
   710  0000                     	;# 
   711  0001                     	;# 
   712  0002                     	;# 
   713  0003                     	;# 
   714  0004                     	;# 
   715  0005                     	;# 
   716  0006                     	;# 
   717  0007                     	;# 
   718  0008                     	;# 
   719  0009                     	;# 
   720  000A                     	;# 
   721  000B                     	;# 
   722  000C                     	;# 
   723  000D                     	;# 
   724  0011                     	;# 
   725  0012                     	;# 
   726  0013                     	;# 
   727  0014                     	;# 
   728  0015                     	;# 
   729  0016                     	;# 
   730  0016                     	;# 
   731  0017                     	;# 
   732  0018                     	;# 
   733  0019                     	;# 
   734  001A                     	;# 
   735  001B                     	;# 
   736  001C                     	;# 
   737  001E                     	;# 
   738  001F                     	;# 
   739  008C                     	;# 
   740  008D                     	;# 
   741  0091                     	;# 
   742  0092                     	;# 
   743  0093                     	;# 
   744  0094                     	;# 
   745  0095                     	;# 
   746  0096                     	;# 
   747  0097                     	;# 
   748  0098                     	;# 
   749  0099                     	;# 
   750  009A                     	;# 
   751  009B                     	;# 
   752  009B                     	;# 
   753  009C                     	;# 
   754  009D                     	;# 
   755  009E                     	;# 
   756  010C                     	;# 
   757  010D                     	;# 
   758  0111                     	;# 
   759  0112                     	;# 
   760  0113                     	;# 
   761  0114                     	;# 
   762  0115                     	;# 
   763  0116                     	;# 
   764  0117                     	;# 
   765  0118                     	;# 
   766  0119                     	;# 
   767  011A                     	;# 
   768  011B                     	;# 
   769  011D                     	;# 
   770  011E                     	;# 
   771  018C                     	;# 
   772  018D                     	;# 
   773  0191                     	;# 
   774  0191                     	;# 
   775  0192                     	;# 
   776  0193                     	;# 
   777  0193                     	;# 
   778  0193                     	;# 
   779  0194                     	;# 
   780  0195                     	;# 
   781  0196                     	;# 
   782  0199                     	;# 
   783  019A                     	;# 
   784  019B                     	;# 
   785  019B                     	;# 
   786  019B                     	;# 
   787  019B                     	;# 
   788  019C                     	;# 
   789  019C                     	;# 
   790  019D                     	;# 
   791  019E                     	;# 
   792  019F                     	;# 
   793  020C                     	;# 
   794  020D                     	;# 
   795  0211                     	;# 
   796  0211                     	;# 
   797  0212                     	;# 
   798  0212                     	;# 
   799  0213                     	;# 
   800  0213                     	;# 
   801  0214                     	;# 
   802  0214                     	;# 
   803  0215                     	;# 
   804  0215                     	;# 
   805  0215                     	;# 
   806  0216                     	;# 
   807  0216                     	;# 
   808  0217                     	;# 
   809  0217                     	;# 
   810  0219                     	;# 
   811  021A                     	;# 
   812  021B                     	;# 
   813  021C                     	;# 
   814  021D                     	;# 
   815  021E                     	;# 
   816  021F                     	;# 
   817  0291                     	;# 
   818  0291                     	;# 
   819  0292                     	;# 
   820  0293                     	;# 
   821  0294                     	;# 
   822  0295                     	;# 
   823  0295                     	;# 
   824  0296                     	;# 
   825  0298                     	;# 
   826  0298                     	;# 
   827  0299                     	;# 
   828  029A                     	;# 
   829  029B                     	;# 
   830  029C                     	;# 
   831  029C                     	;# 
   832  029D                     	;# 
   833  029E                     	;# 
   834  029E                     	;# 
   835  0311                     	;# 
   836  0311                     	;# 
   837  0312                     	;# 
   838  0313                     	;# 
   839  0318                     	;# 
   840  0318                     	;# 
   841  0319                     	;# 
   842  031A                     	;# 
   843  0394                     	;# 
   844  0395                     	;# 
   845  0396                     	;# 
   846  039A                     	;# 
   847  039C                     	;# 
   848  039D                     	;# 
   849  039E                     	;# 
   850  039F                     	;# 
   851  0415                     	;# 
   852  0416                     	;# 
   853  0417                     	;# 
   854  041C                     	;# 
   855  041D                     	;# 
   856  041E                     	;# 
   857  0FE4                     	;# 
   858  0FE5                     	;# 
   859  0FE6                     	;# 
   860  0FE7                     	;# 
   861  0FE8                     	;# 
   862  0FE9                     	;# 
   863  0FEA                     	;# 
   864  0FEB                     	;# 
   865  0FED                     	;# 
   866  0FEE                     	;# 
   867  0FEF                     	;# 
   868  0000                     	;# 
   869  0001                     	;# 
   870  0002                     	;# 
   871  0003                     	;# 
   872  0004                     	;# 
   873  0005                     	;# 
   874  0006                     	;# 
   875  0007                     	;# 
   876  0008                     	;# 
   877  0009                     	;# 
   878  000A                     	;# 
   879  000B                     	;# 
   880  000C                     	;# 
   881  000D                     	;# 
   882  0011                     	;# 
   883  0012                     	;# 
   884  0013                     	;# 
   885  0014                     	;# 
   886  0015                     	;# 
   887  0016                     	;# 
   888  0016                     	;# 
   889  0017                     	;# 
   890  0018                     	;# 
   891  0019                     	;# 
   892  001A                     	;# 
   893  001B                     	;# 
   894  001C                     	;# 
   895  001E                     	;# 
   896  001F                     	;# 
   897  008C                     	;# 
   898  008D                     	;# 
   899  0091                     	;# 
   900  0092                     	;# 
   901  0093                     	;# 
   902  0094                     	;# 
   903  0095                     	;# 
   904  0096                     	;# 
   905  0097                     	;# 
   906  0098                     	;# 
   907  0099                     	;# 
   908  009A                     	;# 
   909  009B                     	;# 
   910  009B                     	;# 
   911  009C                     	;# 
   912  009D                     	;# 
   913  009E                     	;# 
   914  010C                     	;# 
   915  010D                     	;# 
   916  0111                     	;# 
   917  0112                     	;# 
   918  0113                     	;# 
   919  0114                     	;# 
   920  0115                     	;# 
   921  0116                     	;# 
   922  0117                     	;# 
   923  0118                     	;# 
   924  0119                     	;# 
   925  011A                     	;# 
   926  011B                     	;# 
   927  011D                     	;# 
   928  011E                     	;# 
   929  018C                     	;# 
   930  018D                     	;# 
   931  0191                     	;# 
   932  0191                     	;# 
   933  0192                     	;# 
   934  0193                     	;# 
   935  0193                     	;# 
   936  0193                     	;# 
   937  0194                     	;# 
   938  0195                     	;# 
   939  0196                     	;# 
   940  0199                     	;# 
   941  019A                     	;# 
   942  019B                     	;# 
   943  019B                     	;# 
   944  019B                     	;# 
   945  019B                     	;# 
   946  019C                     	;# 
   947  019C                     	;# 
   948  019D                     	;# 
   949  019E                     	;# 
   950  019F                     	;# 
   951  020C                     	;# 
   952  020D                     	;# 
   953  0211                     	;# 
   954  0211                     	;# 
   955  0212                     	;# 
   956  0212                     	;# 
   957  0213                     	;# 
   958  0213                     	;# 
   959  0214                     	;# 
   960  0214                     	;# 
   961  0215                     	;# 
   962  0215                     	;# 
   963  0215                     	;# 
   964  0216                     	;# 
   965  0216                     	;# 
   966  0217                     	;# 
   967  0217                     	;# 
   968  0219                     	;# 
   969  021A                     	;# 
   970  021B                     	;# 
   971  021C                     	;# 
   972  021D                     	;# 
   973  021E                     	;# 
   974  021F                     	;# 
   975  0291                     	;# 
   976  0291                     	;# 
   977  0292                     	;# 
   978  0293                     	;# 
   979  0294                     	;# 
   980  0295                     	;# 
   981  0295                     	;# 
   982  0296                     	;# 
   983  0298                     	;# 
   984  0298                     	;# 
   985  0299                     	;# 
   986  029A                     	;# 
   987  029B                     	;# 
   988  029C                     	;# 
   989  029C                     	;# 
   990  029D                     	;# 
   991  029E                     	;# 
   992  029E                     	;# 
   993  0311                     	;# 
   994  0311                     	;# 
   995  0312                     	;# 
   996  0313                     	;# 
   997  0318                     	;# 
   998  0318                     	;# 
   999  0319                     	;# 
  1000  031A                     	;# 
  1001  0394                     	;# 
  1002  0395                     	;# 
  1003  0396                     	;# 
  1004  039A                     	;# 
  1005  039C                     	;# 
  1006  039D                     	;# 
  1007  039E                     	;# 
  1008  039F                     	;# 
  1009  0415                     	;# 
  1010  0416                     	;# 
  1011  0417                     	;# 
  1012  041C                     	;# 
  1013  041D                     	;# 
  1014  041E                     	;# 
  1015  0FE4                     	;# 
  1016  0FE5                     	;# 
  1017  0FE6                     	;# 
  1018  0FE7                     	;# 
  1019  0FE8                     	;# 
  1020  0FE9                     	;# 
  1021  0FEA                     	;# 
  1022  0FEB                     	;# 
  1023  0FED                     	;# 
  1024  0FEE                     	;# 
  1025  0FEF                     	;# 
  1026  0000                     nosup@@$_$_IDLOC7	set	0	;# 
  1027  0000                     	;# 
  1028  0001                     	;# 
  1029  0002                     	;# 
  1030  0003                     	;# 
  1031  0004                     	;# 
  1032  0005                     	;# 
  1033  0006                     	;# 
  1034  0007                     	;# 
  1035  0008                     	;# 
  1036  0009                     	;# 
  1037  000A                     	;# 
  1038  000B                     	;# 
  1039  000C                     	;# 
  1040  000D                     	;# 
  1041  0011                     	;# 
  1042  0012                     	;# 
  1043  0013                     	;# 
  1044  0014                     	;# 
  1045  0015                     	;# 
  1046  0016                     	;# 
  1047  0016                     	;# 
  1048  0017                     	;# 
  1049  0018                     	;# 
  1050  0019                     	;# 
  1051  001A                     	;# 
  1052  001B                     	;# 
  1053  001C                     	;# 
  1054  001E                     	;# 
  1055  001F                     	;# 
  1056  008C                     	;# 
  1057  008D                     	;# 
  1058  0091                     	;# 
  1059  0092                     	;# 
  1060  0093                     	;# 
  1061  0094                     	;# 
  1062  0095                     	;# 
  1063  0096                     	;# 
  1064  0097                     	;# 
  1065  0098                     	;# 
  1066  0099                     	;# 
  1067  009A                     	;# 
  1068  009B                     	;# 
  1069  009B                     	;# 
  1070  009C                     	;# 
  1071  009D                     	;# 
  1072  009E                     	;# 
  1073  010C                     	;# 
  1074  010D                     	;# 
  1075  0111                     	;# 
  1076  0112                     	;# 
  1077  0113                     	;# 
  1078  0114                     	;# 
  1079  0115                     	;# 
  1080  0116                     	;# 
  1081  0117                     	;# 
  1082  0118                     	;# 
  1083  0119                     	;# 
  1084  011A                     	;# 
  1085  011B                     	;# 
  1086  011D                     	;# 
  1087  011E                     	;# 
  1088  018C                     	;# 
  1089  018D                     	;# 
  1090  0191                     	;# 
  1091  0191                     	;# 
  1092  0192                     	;# 
  1093  0193                     	;# 
  1094  0193                     	;# 
  1095  0193                     	;# 
  1096  0194                     	;# 
  1097  0195                     	;# 
  1098  0196                     	;# 
  1099  0199                     	;# 
  1100  019A                     	;# 
  1101  019B                     	;# 
  1102  019B                     	;# 
  1103  019B                     	;# 
  1104  019B                     	;# 
  1105  019C                     	;# 
  1106  019C                     	;# 
  1107  019D                     	;# 
  1108  019E                     	;# 
  1109  019F                     	;# 
  1110  020C                     	;# 
  1111  020D                     	;# 
  1112  0211                     	;# 
  1113  0211                     	;# 
  1114  0212                     	;# 
  1115  0212                     	;# 
  1116  0213                     	;# 
  1117  0213                     	;# 
  1118  0214                     	;# 
  1119  0214                     	;# 
  1120  0215                     	;# 
  1121  0215                     	;# 
  1122  0215                     	;# 
  1123  0216                     	;# 
  1124  0216                     	;# 
  1125  0217                     	;# 
  1126  0217                     	;# 
  1127  0219                     	;# 
  1128  021A                     	;# 
  1129  021B                     	;# 
  1130  021C                     	;# 
  1131  021D                     	;# 
  1132  021E                     	;# 
  1133  021F                     	;# 
  1134  0291                     	;# 
  1135  0291                     	;# 
  1136  0292                     	;# 
  1137  0293                     	;# 
  1138  0294                     	;# 
  1139  0295                     	;# 
  1140  0295                     	;# 
  1141  0296                     	;# 
  1142  0298                     	;# 
  1143  0298                     	;# 
  1144  0299                     	;# 
  1145  029A                     	;# 
  1146  029B                     	;# 
  1147  029C                     	;# 
  1148  029C                     	;# 
  1149  029D                     	;# 
  1150  029E                     	;# 
  1151  029E                     	;# 
  1152  0311                     	;# 
  1153  0311                     	;# 
  1154  0312                     	;# 
  1155  0313                     	;# 
  1156  0318                     	;# 
  1157  0318                     	;# 
  1158  0319                     	;# 
  1159  031A                     	;# 
  1160  0394                     	;# 
  1161  0395                     	;# 
  1162  0396                     	;# 
  1163  039A                     	;# 
  1164  039C                     	;# 
  1165  039D                     	;# 
  1166  039E                     	;# 
  1167  039F                     	;# 
  1168  0415                     	;# 
  1169  0416                     	;# 
  1170  0417                     	;# 
  1171  041C                     	;# 
  1172  041D                     	;# 
  1173  041E                     	;# 
  1174  0FE4                     	;# 
  1175  0FE5                     	;# 
  1176  0FE6                     	;# 
  1177  0FE7                     	;# 
  1178  0FE8                     	;# 
  1179  0FE9                     	;# 
  1180  0FEA                     	;# 
  1181  0FEB                     	;# 
  1182  0FED                     	;# 
  1183  0FEE                     	;# 
  1184  0FEF                     	;# 
  1185                           
  1186                           	psect	stringtext1
  1187  07C0                     __pstringtext1:
  1188  07C0                     _program_date:
  1189  07C0  3432               	retlw	50
  1190  07C1  3430               	retlw	48
  1191  07C2  3432               	retlw	50
  1192  07C3  3432               	retlw	50
  1193  07C4  342F               	retlw	47
  1194  07C5  3430               	retlw	48
  1195  07C6  3437               	retlw	55
  1196  07C7  342F               	retlw	47
  1197  07C8  3431               	retlw	49
  1198  07C9  3435               	retlw	53
  1199  07CA  3400               	retlw	0
  1200  07CB                     __end_of_program_date:
  1201                           
  1202                           	psect	stringtext2
  1203  07CB                     __pstringtext2:
  1204  07CB                     _program_name:
  1205  07CB  3453               	retlw	83
  1206  07CC  3465               	retlw	101
  1207  07CD  3471               	retlw	113
  1208  07CE  3475               	retlw	117
  1209  07CF  3465               	retlw	101
  1210  07D0  346E               	retlw	110
  1211  07D1  3463               	retlw	99
  1212  07D2  3465               	retlw	101
  1213  07D3  3472               	retlw	114
  1214  07D4  3400               	retlw	0
  1215  07D5                     __end_of_program_name:
  1216                           
  1217                           	psect	stringtext3
  1218  07E8                     __pstringtext3:
  1219  07E8                     _program_version:
  1220  07E8  3430               	retlw	48
  1221  07E9  342E               	retlw	46
  1222  07EA  3431               	retlw	49
  1223  07EB  3400               	retlw	0
  1224  07EC                     __end_of_program_version:
  1225                           
  1226                           	psect	nvBANK0
  1227  006F                     __pnvBANK0:
  1228  006F                     _timer0ReloadVal:
  1229  006F                     	ds	1
  1230                           
  1231                           	psect	nvBANK1
  1232  00A0                     __pnvBANK1:
  1233  00A0                     _PTT_current_value:
  1234  00A0                     	ds	2
  1235  00A2                     _ADC_InterruptHandler:
  1236  00A2                     	ds	2
  1237  000C                     _PORTAbits	set	12
  1238  000D                     _PORTBbits	set	13
  1239  0011                     _PIR1bits	set	17
  1240  000B                     _INTCONbits	set	11
  1241  0015                     _TMR0	set	21
  1242  0095                     _OPTION_REGbits	set	149
  1243  008D                     _TRISB	set	141
  1244  008C                     _TRISA	set	140
  1245  009D                     _ADCON0bits	set	157
  1246  009D                     _ADCON0	set	157
  1247  009C                     _ADRESH	set	156
  1248  009B                     _ADRESL	set	155
  1249  009E                     _ADCON1	set	158
  1250  0091                     _PIE1bits	set	145
  1251  0095                     _OPTION_REG	set	149
  1252  0097                     _WDTCON	set	151
  1253  0098                     _OSCTUNE	set	152
  1254  0099                     _OSCCON	set	153
  1255  010D                     _LATBbits	set	269
  1256  011E                     _APFCON1	set	286
  1257  011D                     _APFCON0	set	285
  1258  010D                     _LATB	set	269
  1259  010C                     _LATA	set	268
  1260  0116                     _BORCON	set	278
  1261  018C                     _ANSELA	set	396
  1262  018D                     _ANSELB	set	397
  1263  020C                     _WPUA	set	524
  1264  020D                     _WPUB	set	525
  1265                           
  1266                           	psect	cinit
  1267  001B                     start_initialization:	
  1268                           ; #config settings
  1269                           
  1270  001B                     __initialization:
  1271                           
  1272                           ; Clear objects allocated to BANK0
  1273  001B  0020               	movlb	0	; select bank0
  1274  001C  01EB               	clrf	__pbssBANK0& (0+127)
  1275  001D  01EC               	clrf	(__pbssBANK0+1)& (0+127)
  1276  001E  01ED               	clrf	(__pbssBANK0+2)& (0+127)
  1277  001F  01EE               	clrf	(__pbssBANK0+3)& (0+127)
  1278  0020                     end_of_initialization:	
  1279                           ;End of C runtime variable initialization code
  1280                           
  1281  0020                     __end_of__initialization:
  1282  0020  107E               	bcf	int$flags,0	;clear compiler interrupt flag (level 1)
  1283  0021  0020               	movlb	0
  1284  0022  3184  2C2F         	ljmp	_main	;jump to C main() function
  1285                           
  1286                           	psect	bssBANK0
  1287  006B                     __pbssBANK0:
  1288  006B                     _event:
  1289  006B                     	ds	2
  1290  006D                     _newevent:
  1291  006D                     	ds	2
  1292                           
  1293                           	psect	cstackCOMMON
  1294  0070                     __pcstackCOMMON:
  1295  0070                     ?_PIN_MANAGER_Initialize:
  1296  0070                     ??_PIN_MANAGER_Initialize:	
  1297                           ; 1 bytes @ 0x0
  1298                           
  1299  0070                     ?_OSCILLATOR_Initialize:	
  1300                           ; 1 bytes @ 0x0
  1301                           
  1302  0070                     ??_OSCILLATOR_Initialize:	
  1303                           ; 1 bytes @ 0x0
  1304                           
  1305  0070                     ?_WDT_Initialize:	
  1306                           ; 1 bytes @ 0x0
  1307                           
  1308  0070                     ??_WDT_Initialize:	
  1309                           ; 1 bytes @ 0x0
  1310                           
  1311  0070                     ?_ADC_Initialize:	
  1312                           ; 1 bytes @ 0x0
  1313                           
  1314  0070                     ?_TMR0_Initialize:	
  1315                           ; 1 bytes @ 0x0
  1316                           
  1317  0070                     ??_TMR0_Initialize:	
  1318                           ; 1 bytes @ 0x0
  1319                           
  1320  0070                     ?_ADC_ISR:	
  1321                           ; 1 bytes @ 0x0
  1322                           
  1323  0070                     ??_ADC_ISR:	
  1324                           ; 1 bytes @ 0x0
  1325                           
  1326  0070                     ?_ADC_SetInterruptHandler:	
  1327                           ; 1 bytes @ 0x0
  1328                           
  1329  0070                     ?_ADC_DefaultInterruptHandler:	
  1330                           ; 1 bytes @ 0x0
  1331                           
  1332  0070                     ??_ADC_DefaultInterruptHandler:	
  1333                           ; 1 bytes @ 0x0
  1334                           
  1335  0070                     ?_SYSTEM_Initialize:	
  1336                           ; 1 bytes @ 0x0
  1337                           
  1338  0070                     ?_INTERRUPT_InterruptManager:	
  1339                           ; 1 bytes @ 0x0
  1340                           
  1341  0070                     ??_INTERRUPT_InterruptManager:	
  1342                           ; 1 bytes @ 0x0
  1343                           
  1344  0070                     ?_ADC_SelectChannel:	
  1345                           ; 1 bytes @ 0x0
  1346                           
  1347  0070                     ??_ADC_SelectChannel:	
  1348                           ; 1 bytes @ 0x0
  1349                           
  1350  0070                     ?_ADC_StartConversion:	
  1351                           ; 1 bytes @ 0x0
  1352                           
  1353  0070                     ??_ADC_StartConversion:	
  1354                           ; 1 bytes @ 0x0
  1355                           
  1356  0070                     ?_get_switch_type:	
  1357                           ; 1 bytes @ 0x0
  1358                           
  1359  0070                     ??_get_switch_type:	
  1360                           ; 1 bytes @ 0x0
  1361                           
  1362  0070                     ?_get_event:	
  1363                           ; 1 bytes @ 0x0
  1364                           
  1365  0070                     ?__Umul8_16:	
  1366                           ; 1 bytes @ 0x0
  1367                           
  1368  0070                     ?_ADC_GetConversionResult:	
  1369                           ; 2 bytes @ 0x0
  1370                           
  1371  0070                     ?_SEQ1:	
  1372                           ; 2 bytes @ 0x0
  1373                           
  1374  0070                     ?_SEQ2:	
  1375                           ; 2 bytes @ 0x0
  1376                           
  1377  0070                     ?_SEQ3:	
  1378                           ; 2 bytes @ 0x0
  1379                           
  1380  0070                     ?_SEQ4:	
  1381                           ; 2 bytes @ 0x0
  1382                           
  1383  0070                     ?_main:	
  1384                           ; 2 bytes @ 0x0
  1385                           
  1386  0070                     ?___xxtofl:	
  1387                           ; 2 bytes @ 0x0
  1388                           
  1389  0070                     __Umul8_16@multiplicand:	
  1390                           ; 4 bytes @ 0x0
  1391                           
  1392  0070                     ADC_SetInterruptHandler@InterruptHandler:	
  1393                           ; 1 bytes @ 0x0
  1394                           
  1395  0070                     SEQ1@set:	
  1396                           ; 2 bytes @ 0x0
  1397                           
  1398  0070                     SEQ2@set:	
  1399                           ; 2 bytes @ 0x0
  1400                           
  1401  0070                     SEQ3@set:	
  1402                           ; 2 bytes @ 0x0
  1403                           
  1404  0070                     SEQ4@set:	
  1405                           ; 2 bytes @ 0x0
  1406                           
  1407  0070                     ___xxtofl@val:	
  1408                           ; 2 bytes @ 0x0
  1409                           
  1410                           
  1411                           ; 4 bytes @ 0x0
  1412  0070                     	ds	1
  1413  0071                     ADC_SelectChannel@channel:
  1414                           
  1415                           ; 1 bytes @ 0x1
  1416  0071                     	ds	1
  1417  0072                     ??_ADC_Initialize:
  1418  0072                     ??_ADC_SetInterruptHandler:	
  1419                           ; 1 bytes @ 0x2
  1420                           
  1421  0072                     ??__Umul8_16:	
  1422                           ; 1 bytes @ 0x2
  1423                           
  1424  0072                     ??_SYSTEM_Initialize:	
  1425                           ; 1 bytes @ 0x2
  1426                           
  1427  0072                     ??_ADC_GetConversionResult:	
  1428                           ; 1 bytes @ 0x2
  1429                           
  1430  0072                     ??_SEQ1:	
  1431                           ; 1 bytes @ 0x2
  1432                           
  1433  0072                     ??_SEQ2:	
  1434                           ; 1 bytes @ 0x2
  1435                           
  1436  0072                     ??_SEQ3:	
  1437                           ; 1 bytes @ 0x2
  1438                           
  1439  0072                     ??_SEQ4:	
  1440                           ; 1 bytes @ 0x2
  1441                           
  1442  0072                     get_switch_type@switch_status:	
  1443                           ; 1 bytes @ 0x2
  1444                           
  1445                           
  1446                           ; 1 bytes @ 0x2
  1447  0072                     	ds	1
  1448  0073                     get_switch_type@port1:
  1449                           
  1450                           ; 2 bytes @ 0x3
  1451  0073                     	ds	1
  1452  0074                     ??___xxtofl:
  1453  0074                     __Umul8_16@product:	
  1454                           ; 1 bytes @ 0x4
  1455                           
  1456                           
  1457                           ; 2 bytes @ 0x4
  1458  0074                     	ds	1
  1459  0075                     get_switch_type@port2:
  1460                           
  1461                           ; 2 bytes @ 0x5
  1462  0075                     	ds	1
  1463  0076                     __Umul8_16@word_mpld:
  1464                           
  1465                           ; 2 bytes @ 0x6
  1466  0076                     	ds	2
  1467  0078                     __Umul8_16@multiplier:
  1468  0078                     ___xxtofl@sign:	
  1469                           ; 1 bytes @ 0x8
  1470                           
  1471                           
  1472                           ; 1 bytes @ 0x8
  1473  0078                     	ds	1
  1474  0079                     ___xxtofl@exp:
  1475                           
  1476                           ; 1 bytes @ 0x9
  1477  0079                     	ds	1
  1478  007A                     ___xxtofl@arg:
  1479                           
  1480                           ; 4 bytes @ 0xA
  1481  007A                     	ds	4
  1482  007E                     ??_read_battery_voltage:
  1483                           
  1484                           	psect	cstackBANK0
  1485  0020                     __pcstackBANK0:	
  1486                           ; 1 bytes @ 0xE
  1487                           
  1488  0020                     ?___flmul:
  1489  0020                     ___flmul@b:	
  1490                           ; 4 bytes @ 0x0
  1491                           
  1492                           
  1493                           ; 4 bytes @ 0x0
  1494  0020                     	ds	4
  1495  0024                     ___flmul@a:
  1496                           
  1497                           ; 4 bytes @ 0x4
  1498  0024                     	ds	4
  1499  0028                     ??___flmul:
  1500                           
  1501                           ; 1 bytes @ 0x8
  1502  0028                     	ds	5
  1503  002D                     ___flmul@sign:
  1504                           
  1505                           ; 1 bytes @ 0xD
  1506  002D                     	ds	1
  1507  002E                     ___flmul@grs:
  1508                           
  1509                           ; 4 bytes @ 0xE
  1510  002E                     	ds	4
  1511  0032                     ___flmul@aexp:
  1512                           
  1513                           ; 1 bytes @ 0x12
  1514  0032                     	ds	1
  1515  0033                     ___flmul@bexp:
  1516                           
  1517                           ; 1 bytes @ 0x13
  1518  0033                     	ds	1
  1519  0034                     ___flmul@prod:
  1520                           
  1521                           ; 4 bytes @ 0x14
  1522  0034                     	ds	4
  1523  0038                     ___flmul@temp:
  1524                           
  1525                           ; 2 bytes @ 0x18
  1526  0038                     	ds	2
  1527  003A                     ?___fldiv:
  1528  003A                     ___fldiv@a:	
  1529                           ; 4 bytes @ 0x1A
  1530                           
  1531                           
  1532                           ; 4 bytes @ 0x1A
  1533  003A                     	ds	4
  1534  003E                     ___fldiv@b:
  1535                           
  1536                           ; 4 bytes @ 0x1E
  1537  003E                     	ds	4
  1538  0042                     ??___fldiv:
  1539                           
  1540                           ; 1 bytes @ 0x22
  1541  0042                     	ds	5
  1542  0047                     ___fldiv@rem:
  1543                           
  1544                           ; 4 bytes @ 0x27
  1545  0047                     	ds	4
  1546  004B                     ___fldiv@sign:
  1547                           
  1548                           ; 1 bytes @ 0x2B
  1549  004B                     	ds	1
  1550  004C                     ___fldiv@new_exp:
  1551                           
  1552                           ; 2 bytes @ 0x2C
  1553  004C                     	ds	2
  1554  004E                     ___fldiv@grs:
  1555                           
  1556                           ; 4 bytes @ 0x2E
  1557  004E                     	ds	4
  1558  0052                     ___fldiv@bexp:
  1559                           
  1560                           ; 1 bytes @ 0x32
  1561  0052                     	ds	1
  1562  0053                     ___fldiv@aexp:
  1563                           
  1564                           ; 1 bytes @ 0x33
  1565  0053                     	ds	1
  1566  0054                     ?_read_battery_voltage:
  1567                           
  1568                           ; 4 bytes @ 0x34
  1569  0054                     	ds	4
  1570  0058                     read_battery_voltage@convertedValue:
  1571                           
  1572                           ; 2 bytes @ 0x38
  1573  0058                     	ds	2
  1574  005A                     ?___flge:
  1575  005A                     ___flge@ff1:	
  1576                           ; 1 bit 
  1577                           
  1578                           
  1579                           ; 4 bytes @ 0x3A
  1580  005A                     	ds	4
  1581  005E                     ___flge@ff2:
  1582                           
  1583                           ; 4 bytes @ 0x3E
  1584  005E                     	ds	4
  1585  0062                     ??___flge:
  1586                           
  1587                           ; 1 bytes @ 0x42
  1588  0062                     	ds	4
  1589  0066                     ??_get_event:
  1590                           
  1591                           ; 1 bytes @ 0x46
  1592  0066                     	ds	2
  1593  0068                     get_event@local_event:
  1594                           
  1595                           ; 1 bytes @ 0x48
  1596  0068                     	ds	1
  1597  0069                     ??_main:
  1598                           
  1599                           ; 1 bytes @ 0x49
  1600  0069                     	ds	2
  1601                           
  1602                           	psect	maintext
  1603  042F                     __pmaintext:	
  1604 ;;
  1605 ;;Main: autosize = 0, tempsize = 2, incstack = 0, save=0
  1606 ;;
  1607 ;; *************** function _main *****************
  1608 ;; Defined at:
  1609 ;;		line 266 in file "main.c"
  1610 ;; Parameters:    Size  Location     Type
  1611 ;;		None
  1612 ;; Auto vars:     Size  Location     Type
  1613 ;;  sw_type         1    0        enum E2838
  1614 ;; Return value:  Size  Location     Type
  1615 ;;                  2  251[None  ] int 
  1616 ;; Registers used:
  1617 ;;		wreg, fsr0l, fsr0h, status,2, status,0, pclath, cstack
  1618 ;; Tracked objects:
  1619 ;;		On entry : B1F/0
  1620 ;;		On exit  : 0/0
  1621 ;;		Unchanged: 0/0
  1622 ;; Data sizes:     COMMON   BANK0   BANK1   BANK2   BANK3   BANK4
  1623 ;;      Params:         0       0       0       0       0       0
  1624 ;;      Locals:         0       0       0       0       0       0
  1625 ;;      Temps:          0       2       0       0       0       0
  1626 ;;      Totals:         0       2       0       0       0       0
  1627 ;;Total ram usage:        2 bytes
  1628 ;; Hardware stack levels required when called: 7
  1629 ;; This function calls:
  1630 ;;		_SEQ1
  1631 ;;		_SEQ2
  1632 ;;		_SEQ3
  1633 ;;		_SEQ4
  1634 ;;		_SYSTEM_Initialize
  1635 ;;		_get_event
  1636 ;;		_get_switch_type
  1637 ;; This function is called by:
  1638 ;;		Startup code after reset
  1639 ;; This function uses a non-reentrant model
  1640 ;;
  1641                           
  1642  042F                     _main:	
  1643                           ;psect for function _main
  1644                           
  1645  042F                     l2125:	
  1646                           ;incstack = 0
  1647                           ; Regs used in _main: [wreg-fsr0h+status,2+status,0+pclath+cstack]
  1648                           
  1649                           
  1650                           ;main.c: 268:     enum switch_type sw_type;;main.c: 271:     SYSTEM_Initialize();
  1651  042F  3187  2776  3184   	fcall	_SYSTEM_Initialize
  1652  0432                     l2127:
  1653  0432  0022               	movlb	2	; select bank2
  1654  0433  158D               	bsf	13,3	;volatile
  1655  0434                     l253:
  1656  0434  3186  26B0  3184   	fcall	_get_switch_type
  1657  0437                     l2129:
  1658                           
  1659                           ;main.c: 276:     PTT_current_value = PORTAbits.RA4;
  1660  0437  0020               	movlb	0	; select bank0
  1661  0438  0E0C               	swapf	12,w	;volatile
  1662  0439  3901               	andlw	1
  1663  043A  00E9               	movwf	??_main
  1664  043B  01EA               	clrf	??_main+1
  1665  043C  0869               	movf	??_main,w
  1666  043D  0021               	movlb	1	; select bank1
  1667  043E  00A0               	movwf	_PTT_current_value^(0+128)
  1668  043F  0020               	movlb	0	; select bank0
  1669  0440  086A               	movf	??_main+1,w
  1670  0441  0021               	movlb	1	; select bank1
  1671  0442  00A1               	movwf	(_PTT_current_value+1)^(0+128)
  1672  0443                     l2131:	
  1673                           ;main.c: 278:     while( (PTT_current_value=PORTAbits.RA4)==0);
  1674                           
  1675  0443  0020               	movlb	0	; select bank0
  1676  0444  0E0C               	swapf	12,w	;volatile
  1677  0445  3901               	andlw	1
  1678  0446  00E9               	movwf	??_main
  1679  0447  01EA               	clrf	??_main+1
  1680  0448  0869               	movf	??_main,w
  1681  0449  0021               	movlb	1	; select bank1
  1682  044A  00A0               	movwf	_PTT_current_value^(0+128)
  1683  044B  0020               	movlb	0	; select bank0
  1684  044C  086A               	movf	??_main+1,w
  1685  044D  0021               	movlb	1	; select bank1
  1686  044E  00A1               	movwf	(_PTT_current_value+1)^(0+128)
  1687  044F  0820               	movf	_PTT_current_value^(0+128),w
  1688  0450  0421               	iorwf	(_PTT_current_value+1)^(0+128),w
  1689  0451  1903               	btfsc	3,2
  1690  0452  2C54               	goto	u1801
  1691  0453  2C55               	goto	u1800
  1692  0454                     u1801:
  1693  0454  2C43               	goto	l2131
  1694  0455                     u1800:
  1695  0455                     l257:	
  1696                           ;main.c: 297:     do { LATBbits.LATB3 = 0; } while(0);
  1697                           
  1698  0455  0022               	movlb	2	; select bank2
  1699  0456  118D               	bcf	13,3	;volatile
  1700  0457  2C58               	goto	l2133
  1701  0458                     l258:
  1702  0458                     l2133:
  1703                           
  1704                           ;main.c: 300:     {;main.c: 302:         if (get_event())
  1705  0458  3186  2614  3184   	fcall	_get_event
  1706  045B  3A00               	xorlw	0
  1707  045C  1903               	skipnz
  1708  045D  2C5F               	goto	u1811
  1709  045E  2C60               	goto	u1810
  1710  045F                     u1811:
  1711  045F  2C58               	goto	l2133
  1712  0460                     u1810:
  1713  0460  2CCA               	goto	l2169
  1714  0461                     l2137:
  1715                           
  1716                           ;main.c: 307:                     SEQ1(1);
  1717  0461  3001               	movlw	1
  1718  0462  00F0               	movwf	SEQ1@set
  1719  0463  3000               	movlw	0
  1720  0464  00F1               	movwf	SEQ1@set+1
  1721  0465  3187  2760  3184   	fcall	_SEQ1
  1722  0468                     l2139:
  1723                           
  1724                           ;main.c: 309:                     _delay((unsigned long)((15)*(500000/4000.0)));
  1725  0468  3003               	movlw	3
  1726  0469  0020               	movlb	0	; select bank0
  1727  046A  00E9               	movwf	??_main
  1728  046B  306E               	movlw	110
  1729  046C                     u1827:
  1730  046C  0B89               	decfsz	9,f
  1731  046D  2C6C               	goto	u1827
  1732  046E  0BE9               	decfsz	??_main,f
  1733  046F  2C6C               	goto	u1827
  1734  0470                     l2141:
  1735                           
  1736                           ;main.c: 310:                     SEQ2(1);
  1737  0470  3001               	movlw	1
  1738  0471  00F0               	movwf	SEQ2@set
  1739  0472  3000               	movlw	0
  1740  0473  00F1               	movwf	SEQ2@set+1
  1741  0474  3187  274A  3184   	fcall	_SEQ2
  1742                           
  1743                           ;main.c: 311:                     _delay((unsigned long)((15)*(500000/4000.0)));
  1744  0477  3003               	movlw	3
  1745  0478  0020               	movlb	0	; select bank0
  1746  0479  00E9               	movwf	??_main
  1747  047A  306E               	movlw	110
  1748  047B                     u1837:
  1749  047B  0B89               	decfsz	9,f
  1750  047C  2C7B               	goto	u1837
  1751  047D  0BE9               	decfsz	??_main,f
  1752  047E  2C7B               	goto	u1837
  1753  047F                     l2143:
  1754                           
  1755                           ;main.c: 312:                     SEQ3(1);
  1756  047F  3001               	movlw	1
  1757  0480  00F0               	movwf	SEQ3@set
  1758  0481  3000               	movlw	0
  1759  0482  00F1               	movwf	SEQ3@set+1
  1760  0483  3187  2734  3184   	fcall	_SEQ3
  1761  0486                     l2145:
  1762                           
  1763                           ;main.c: 313:                     _delay((unsigned long)((15)*(500000/4000.0)));
  1764  0486  3003               	movlw	3
  1765  0487  0020               	movlb	0	; select bank0
  1766  0488  00E9               	movwf	??_main
  1767  0489  306E               	movlw	110
  1768  048A                     u1847:
  1769  048A  0B89               	decfsz	9,f
  1770  048B  2C8A               	goto	u1847
  1771  048C  0BE9               	decfsz	??_main,f
  1772  048D  2C8A               	goto	u1847
  1773                           
  1774                           ;main.c: 314:                     SEQ4(1);
  1775  048E  3001               	movlw	1
  1776  048F  00F0               	movwf	SEQ4@set
  1777  0490  3000               	movlw	0
  1778  0491  00F1               	movwf	SEQ4@set+1
  1779  0492  3187  271E  3184   	fcall	_SEQ4
  1780                           
  1781                           ;main.c: 315:                     break;
  1782  0495  2C58               	goto	l2133
  1783  0496                     l2147:
  1784                           
  1785                           ;main.c: 318:                     SEQ4(0);
  1786  0496  3000               	movlw	0
  1787  0497  00F0               	movwf	SEQ4@set
  1788  0498  00F1               	movwf	SEQ4@set+1
  1789  0499  3187  271E  3184   	fcall	_SEQ4
  1790  049C                     l2149:
  1791                           
  1792                           ;main.c: 319:                     _delay((unsigned long)((15)*(500000/4000.0)));
  1793  049C  3003               	movlw	3
  1794  049D  0020               	movlb	0	; select bank0
  1795  049E  00E9               	movwf	??_main
  1796  049F  306E               	movlw	110
  1797  04A0                     u1857:
  1798  04A0  0B89               	decfsz	9,f
  1799  04A1  2CA0               	goto	u1857
  1800  04A2  0BE9               	decfsz	??_main,f
  1801  04A3  2CA0               	goto	u1857
  1802  04A4                     l2151:
  1803                           
  1804                           ;main.c: 320:                     SEQ3(0);
  1805  04A4  3000               	movlw	0
  1806  04A5  00F0               	movwf	SEQ3@set
  1807  04A6  00F1               	movwf	SEQ3@set+1
  1808  04A7  3187  2734  3184   	fcall	_SEQ3
  1809                           
  1810                           ;main.c: 321:                     _delay((unsigned long)((15)*(500000/4000.0)));
  1811  04AA  3003               	movlw	3
  1812  04AB  0020               	movlb	0	; select bank0
  1813  04AC  00E9               	movwf	??_main
  1814  04AD  306E               	movlw	110
  1815  04AE                     u1867:
  1816  04AE  0B89               	decfsz	9,f
  1817  04AF  2CAE               	goto	u1867
  1818  04B0  0BE9               	decfsz	??_main,f
  1819  04B1  2CAE               	goto	u1867
  1820  04B2                     l2153:
  1821                           
  1822                           ;main.c: 322:                     SEQ2(0);
  1823  04B2  3000               	movlw	0
  1824  04B3  00F0               	movwf	SEQ2@set
  1825  04B4  00F1               	movwf	SEQ2@set+1
  1826  04B5  3187  274A  3184   	fcall	_SEQ2
  1827  04B8                     l2155:
  1828                           
  1829                           ;main.c: 323:                     _delay((unsigned long)((15)*(500000/4000.0)));
  1830  04B8  3003               	movlw	3
  1831  04B9  0020               	movlb	0	; select bank0
  1832  04BA  00E9               	movwf	??_main
  1833  04BB  306E               	movlw	110
  1834  04BC                     u1877:
  1835  04BC  0B89               	decfsz	9,f
  1836  04BD  2CBC               	goto	u1877
  1837  04BE  0BE9               	decfsz	??_main,f
  1838  04BF  2CBC               	goto	u1877
  1839                           
  1840                           ;main.c: 324:                     SEQ1(0);
  1841  04C0  3000               	movlw	0
  1842  04C1  00F0               	movwf	SEQ1@set
  1843  04C2  00F1               	movwf	SEQ1@set+1
  1844  04C3  3187  2760  3184   	fcall	_SEQ1
  1845                           
  1846                           ;main.c: 325:                     break;
  1847  04C6  2C58               	goto	l2133
  1848  04C7                     l266:	
  1849                           ;main.c: 328:                     do { LATBbits.LATB3 = 1; } while(0);
  1850                           
  1851  04C7  0022               	movlb	2	; select bank2
  1852  04C8  158D               	bsf	13,3	;volatile
  1853  04C9  2C96               	goto	l2147
  1854  04CA                     l2169:
  1855                           
  1856                           ; Switch on 2 bytes has been partitioned into a top level switch of size 1, and 1 sub-sw
      +                          itches
  1857                           ; Switch size 1, requested type "simple"
  1858                           ; Number of cases is 1, Range of values is 0 to 0
  1859                           ; switch strategies available:
  1860                           ; Name         Instructions Cycles
  1861                           ; simple_byte            4     3 (average)
  1862                           ; direct_byte            8     6 (fixed)
  1863                           ; jumptable            260     6 (fixed)
  1864                           ;	Chosen strategy is simple_byte
  1865  04CA  0020               	movlb	0	; select bank0
  1866  04CB  086C               	movf	_event+1,w
  1867  04CC  3A00               	xorlw	0	; case 0
  1868  04CD  1903               	skipnz
  1869  04CE  2CD0               	goto	l2287
  1870  04CF  2C58               	goto	l258
  1871  04D0                     l2287:
  1872                           
  1873                           ; Switch size 1, requested type "simple"
  1874                           ; Number of cases is 3, Range of values is 1 to 3
  1875                           ; switch strategies available:
  1876                           ; Name         Instructions Cycles
  1877                           ; simple_byte           10     6 (average)
  1878                           ; direct_byte           15     9 (fixed)
  1879                           ; jumptable            263     9 (fixed)
  1880                           ;	Chosen strategy is simple_byte
  1881  04D0  086B               	movf	_event,w
  1882  04D1  3A01               	xorlw	1	; case 1
  1883  04D2  1903               	skipnz
  1884  04D3  2C61               	goto	l2137
  1885  04D4  3A03               	xorlw	3	; case 2
  1886  04D5  1903               	skipnz
  1887  04D6  2C96               	goto	l2147
  1888  04D7  3A01               	xorlw	1	; case 3
  1889  04D8  1903               	skipnz
  1890  04D9  2CC7               	goto	l266
  1891  04DA  2C58               	goto	l258
  1892  04DB  3180  2819         	ljmp	start
  1893  04DD                     __end_of_main:
  1894                           
  1895                           	psect	text1
  1896  06B0                     __ptext1:	
  1897 ;; *************** function _get_switch_type *****************
  1898 ;; Defined at:
  1899 ;;		line 129 in file "main.c"
  1900 ;; Parameters:    Size  Location     Type
  1901 ;;		None
  1902 ;; Auto vars:     Size  Location     Type
  1903 ;;  port2           2    5[COMMON] int 
  1904 ;;  port1           2    3[COMMON] int 
  1905 ;;  switch_statu    1    2[COMMON] enum E2838
  1906 ;; Return value:  Size  Location     Type
  1907 ;;                  1    wreg      enum E2838
  1908 ;; Registers used:
  1909 ;;		wreg, status,2, status,0
  1910 ;; Tracked objects:
  1911 ;;		On entry : 0/0
  1912 ;;		On exit  : 0/0
  1913 ;;		Unchanged: 0/0
  1914 ;; Data sizes:     COMMON   BANK0   BANK1   BANK2   BANK3   BANK4
  1915 ;;      Params:         0       0       0       0       0       0
  1916 ;;      Locals:         5       0       0       0       0       0
  1917 ;;      Temps:          2       0       0       0       0       0
  1918 ;;      Totals:         7       0       0       0       0       0
  1919 ;;Total ram usage:        7 bytes
  1920 ;; Hardware stack levels used: 1
  1921 ;; Hardware stack levels required when called: 3
  1922 ;; This function calls:
  1923 ;;		Nothing
  1924 ;; This function is called by:
  1925 ;;		_main
  1926 ;; This function uses a non-reentrant model
  1927 ;;
  1928                           
  1929  06B0                     _get_switch_type:	
  1930                           ;psect for function _get_switch_type
  1931                           
  1932  06B0                     l2031:	
  1933                           ;incstack = 0
  1934                           ; Regs used in _get_switch_type: [wreg+status,2+status,0]
  1935                           
  1936                           
  1937                           ;main.c: 131:     enum switch_type switch_status=SWITCH_NOCOPY;
  1938  06B0  3002               	movlw	2
  1939  06B1  00F0               	movwf	??_get_switch_type
  1940  06B2  0870               	movf	??_get_switch_type,w
  1941  06B3  00F2               	movwf	get_switch_type@switch_status
  1942  06B4                     l2033:
  1943  06B4                     l2035:
  1944  06B4                     l2037:
  1945  06B4  0022               	movlb	2	; select bank2
  1946  06B5  140D               	bsf	13,0	;volatile
  1947  06B6                     l2039:
  1948                           
  1949                           ;main.c: 137:     port1=PORTBbits.RB1;
  1950  06B6  0020               	movlb	0	; select bank0
  1951  06B7  0C0D               	rrf	13,w	;volatile
  1952  06B8  3901               	andlw	1
  1953  06B9  00F0               	movwf	??_get_switch_type
  1954  06BA  01F1               	clrf	??_get_switch_type+1
  1955  06BB  0870               	movf	??_get_switch_type,w
  1956  06BC  00F3               	movwf	get_switch_type@port1
  1957  06BD  0871               	movf	??_get_switch_type+1,w
  1958  06BE  00F4               	movwf	get_switch_type@port1+1
  1959  06BF                     l2041:
  1960                           
  1961                           ;main.c: 138:     port2=PORTBbits.RB2;
  1962  06BF  0C0D               	rrf	13,w	;volatile
  1963  06C0  0C89               	rrf	9,f
  1964  06C1  3901               	andlw	1
  1965  06C2  00F0               	movwf	??_get_switch_type
  1966  06C3  01F1               	clrf	??_get_switch_type+1
  1967  06C4  0870               	movf	??_get_switch_type,w
  1968  06C5  00F5               	movwf	get_switch_type@port2
  1969  06C6  0871               	movf	??_get_switch_type+1,w
  1970  06C7  00F6               	movwf	get_switch_type@port2+1
  1971  06C8                     l2043:
  1972                           
  1973                           ;main.c: 140:     if (port1 && !port2) switch_status= SWITCH_RX_LEFT;
  1974  06C8  0873               	movf	get_switch_type@port1,w
  1975  06C9  0474               	iorwf	get_switch_type@port1+1,w
  1976  06CA  1903               	btfsc	3,2
  1977  06CB  2ECD               	goto	u1701
  1978  06CC  2ECE               	goto	u1700
  1979  06CD                     u1701:
  1980  06CD  2ED5               	goto	l2049
  1981  06CE                     u1700:
  1982  06CE                     l2045:
  1983  06CE  0875               	movf	get_switch_type@port2,w
  1984  06CF  0476               	iorwf	get_switch_type@port2+1,w
  1985  06D0  1D03               	btfss	3,2
  1986  06D1  2ED3               	goto	u1711
  1987  06D2  2ED4               	goto	u1710
  1988  06D3                     u1711:
  1989  06D3  2ED5               	goto	l2049
  1990  06D4                     u1710:
  1991  06D4                     l2047:
  1992  06D4  01F2               	clrf	get_switch_type@switch_status
  1993  06D5                     l2049:
  1994                           
  1995                           ;main.c: 141:     if (port2 && !port1) switch_status= SWITCH_RX_RIGHT;
  1996  06D5  0875               	movf	get_switch_type@port2,w
  1997  06D6  0476               	iorwf	get_switch_type@port2+1,w
  1998  06D7  1903               	btfsc	3,2
  1999  06D8  2EDA               	goto	u1721
  2000  06D9  2EDB               	goto	u1720
  2001  06DA                     u1721:
  2002  06DA  2EE3               	goto	l2055
  2003  06DB                     u1720:
  2004  06DB                     l2051:
  2005  06DB  0873               	movf	get_switch_type@port1,w
  2006  06DC  0474               	iorwf	get_switch_type@port1+1,w
  2007  06DD  1D03               	btfss	3,2
  2008  06DE  2EE0               	goto	u1731
  2009  06DF  2EE1               	goto	u1730
  2010  06E0                     u1731:
  2011  06E0  2EE3               	goto	l2055
  2012  06E1                     u1730:
  2013  06E1                     l2053:
  2014  06E1  01F2               	clrf	get_switch_type@switch_status
  2015  06E2  0AF2               	incf	get_switch_type@switch_status,f
  2016  06E3                     l2055:
  2017                           
  2018                           ;main.c: 144:     return(switch_status);
  2019  06E3  0872               	movf	get_switch_type@switch_status,w
  2020  06E4                     l191:
  2021  06E4  0008               	return
  2022  06E5                     __end_of_get_switch_type:
  2023                           
  2024                           	psect	text2
  2025  0614                     __ptext2:	
  2026 ;; *************** function _get_event *****************
  2027 ;; Defined at:
  2028 ;;		line 232 in file "main.c"
  2029 ;; Parameters:    Size  Location     Type
  2030 ;;		None
  2031 ;; Auto vars:     Size  Location     Type
  2032 ;;  local_event     1   72[BANK0 ] enum E2842
  2033 ;; Return value:  Size  Location     Type
  2034 ;;                  1    wreg      enum E2842
  2035 ;; Registers used:
  2036 ;;		wreg, status,2, status,0, pclath, cstack
  2037 ;; Tracked objects:
  2038 ;;		On entry : 0/0
  2039 ;;		On exit  : 0/0
  2040 ;;		Unchanged: 0/0
  2041 ;; Data sizes:     COMMON   BANK0   BANK1   BANK2   BANK3   BANK4
  2042 ;;      Params:         0       0       0       0       0       0
  2043 ;;      Locals:         0       1       0       0       0       0
  2044 ;;      Temps:          0       2       0       0       0       0
  2045 ;;      Totals:         0       3       0       0       0       0
  2046 ;;Total ram usage:        3 bytes
  2047 ;; Hardware stack levels used: 1
  2048 ;; Hardware stack levels required when called: 6
  2049 ;; This function calls:
  2050 ;;		___flge
  2051 ;;		_read_battery_voltage
  2052 ;; This function is called by:
  2053 ;;		_main
  2054 ;; This function uses a non-reentrant model
  2055 ;;
  2056                           
  2057  0614                     _get_event:	
  2058                           ;psect for function _get_event
  2059                           
  2060  0614                     l2099:	
  2061                           ;incstack = 0
  2062                           ; Regs used in _get_event: [wreg+status,2+status,0+pclath+cstack]
  2063                           
  2064                           
  2065                           ;main.c: 234:     enum event_list local_event;;main.c: 239:     if (read_battery_voltage
      +                          () < 11.0 )
  2066  0614  3186  2662  3186   	fcall	_read_battery_voltage
  2067  0617  0020               	movlb	0	; select bank0
  2068  0618  0857               	movf	?_read_battery_voltage+3,w
  2069  0619  00DD               	movwf	___flge@ff1+3
  2070  061A  0856               	movf	?_read_battery_voltage+2,w
  2071  061B  00DC               	movwf	___flge@ff1+2
  2072  061C  0855               	movf	?_read_battery_voltage+1,w
  2073  061D  00DB               	movwf	___flge@ff1+1
  2074  061E  0854               	movf	?_read_battery_voltage,w
  2075  061F  00DA               	movwf	___flge@ff1
  2076  0620  3041               	movlw	65
  2077  0621  00E1               	movwf	___flge@ff2+3
  2078  0622  3030               	movlw	48
  2079  0623  00E0               	movwf	___flge@ff2+2
  2080  0624  3000               	movlw	0
  2081  0625  00DF               	movwf	___flge@ff2+1
  2082  0626  3000               	movlw	0
  2083  0627  00DE               	movwf	___flge@ff2
  2084  0628  3185  2589  3186   	fcall	___flge
  2085  062B  1803               	btfsc	3,0
  2086  062C  2E2E               	goto	u1741
  2087  062D  2E2F               	goto	u1740
  2088  062E                     u1741:
  2089  062E  2E39               	goto	l2103
  2090  062F                     u1740:
  2091  062F                     l2101:
  2092                           
  2093                           ;main.c: 240:     {;main.c: 241:         newevent=1;
  2094  062F  3001               	movlw	1
  2095  0630  0020               	movlb	0	; select bank0
  2096  0631  00ED               	movwf	_newevent
  2097  0632  3000               	movlw	0
  2098  0633  00EE               	movwf	_newevent+1
  2099                           
  2100                           ;main.c: 242:         local_event = BATT_LOW;
  2101  0634  3003               	movlw	3
  2102  0635  00E6               	movwf	??_get_event
  2103  0636  0866               	movf	??_get_event,w
  2104  0637  00E8               	movwf	get_event@local_event
  2105                           
  2106                           ;main.c: 243:     }
  2107  0638  2E60               	goto	l2111
  2108  0639                     l2103:
  2109                           
  2110                           ;main.c: 246:     {;main.c: 248:         if (PTT_current_value != PORTAbits.RA4)
  2111  0639  0020               	movlb	0	; select bank0
  2112  063A  0E0C               	swapf	12,w	;volatile
  2113  063B  3901               	andlw	1
  2114  063C  00E6               	movwf	??_get_event
  2115  063D  01E7               	clrf	??_get_event+1
  2116  063E  0021               	movlb	1	; select bank1
  2117  063F  0821               	movf	(_PTT_current_value+1)^(0+128),w
  2118  0640  0020               	movlb	0	; select bank0
  2119  0641  0667               	xorwf	??_get_event+1,w
  2120  0642  1D03               	skipz
  2121  0643  2E48               	goto	u1755
  2122  0644  0021               	movlb	1	; select bank1
  2123  0645  0820               	movf	_PTT_current_value^(0+128),w
  2124  0646  0020               	movlb	0	; select bank0
  2125  0647  0666               	xorwf	??_get_event,w
  2126  0648                     u1755:
  2127  0648  1903               	skipnz
  2128  0649  2E4B               	goto	u1751
  2129  064A  2E4C               	goto	u1750
  2130  064B                     u1751:
  2131  064B  2E60               	goto	l2111
  2132  064C                     u1750:
  2133  064C                     l2105:
  2134                           
  2135                           ;main.c: 249:         {;main.c: 250:             newevent=1;
  2136  064C  3001               	movlw	1
  2137  064D  00ED               	movwf	_newevent
  2138  064E  3000               	movlw	0
  2139  064F  00EE               	movwf	_newevent+1
  2140  0650                     l2107:
  2141                           
  2142                           ;main.c: 251:             if (PTT_current_value == PTT_ON)
  2143  0650  0021               	movlb	1	; select bank1
  2144  0651  0320               	decf	_PTT_current_value^(0+128),w
  2145  0652  0421               	iorwf	(_PTT_current_value+1)^(0+128),w
  2146  0653  1D03               	btfss	3,2
  2147  0654  2E56               	goto	u1761
  2148  0655  2E57               	goto	u1760
  2149  0656                     u1761:
  2150  0656  2E5D               	goto	l245
  2151  0657                     u1760:
  2152  0657                     l2109:
  2153                           
  2154                           ;main.c: 252:                 local_event = PTT_OFF;
  2155  0657  3002               	movlw	2
  2156  0658  0020               	movlb	0	; select bank0
  2157  0659  00E6               	movwf	??_get_event
  2158  065A  0866               	movf	??_get_event,w
  2159  065B  00E8               	movwf	get_event@local_event
  2160  065C  2E60               	goto	l2111
  2161  065D                     l245:	
  2162                           ;main.c: 253:             else
  2163                           
  2164                           
  2165                           ;main.c: 254:                 local_event = PTT_ON;
  2166  065D  0020               	movlb	0	; select bank0
  2167  065E  01E8               	clrf	get_event@local_event
  2168  065F  0AE8               	incf	get_event@local_event,f
  2169  0660                     l2111:
  2170                           
  2171                           ;main.c: 261:     return (local_event);
  2172  0660  0868               	movf	get_event@local_event,w
  2173  0661                     l247:
  2174  0661  0008               	return
  2175  0662                     __end_of_get_event:
  2176                           
  2177                           	psect	text3
  2178  0662                     __ptext3:	
  2179 ;; *************** function _read_battery_voltage *****************
  2180 ;; Defined at:
  2181 ;;		line 116 in file "main.c"
  2182 ;; Parameters:    Size  Location     Type
  2183 ;;		None
  2184 ;; Auto vars:     Size  Location     Type
  2185 ;;  convertedVal    2   56[BANK0 ] unsigned int 
  2186 ;; Return value:  Size  Location     Type
  2187 ;;                  4   52[BANK0 ] float 
  2188 ;; Registers used:
  2189 ;;		wreg, status,2, status,0, pclath, cstack
  2190 ;; Tracked objects:
  2191 ;;		On entry : 0/0
  2192 ;;		On exit  : 0/0
  2193 ;;		Unchanged: 0/0
  2194 ;; Data sizes:     COMMON   BANK0   BANK1   BANK2   BANK3   BANK4
  2195 ;;      Params:         0       4       0       0       0       0
  2196 ;;      Locals:         0       2       0       0       0       0
  2197 ;;      Temps:          0       0       0       0       0       0
  2198 ;;      Totals:         0       6       0       0       0       0
  2199 ;;Total ram usage:        6 bytes
  2200 ;; Hardware stack levels used: 1
  2201 ;; Hardware stack levels required when called: 5
  2202 ;; This function calls:
  2203 ;;		_ADC_GetConversionResult
  2204 ;;		_ADC_Initialize
  2205 ;;		_ADC_SelectChannel
  2206 ;;		_ADC_StartConversion
  2207 ;;		___fldiv
  2208 ;;		___flmul
  2209 ;;		___xxtofl
  2210 ;; This function is called by:
  2211 ;;		_get_event
  2212 ;; This function uses a non-reentrant model
  2213 ;;
  2214                           
  2215  0662                     _read_battery_voltage:	
  2216                           ;psect for function _read_battery_voltage
  2217                           
  2218  0662                     l1993:	
  2219                           ;incstack = 0
  2220                           ; Regs used in _read_battery_voltage: [wreg+status,2+status,0+pclath+cstack]
  2221                           
  2222                           
  2223                           ;main.c: 118:     unsigned int convertedValue;;main.c: 120:     ADC_Initialize();
  2224  0662  3187  2786  3186   	fcall	_ADC_Initialize
  2225                           
  2226                           ;main.c: 121:     ADC_SelectChannel(IN_BATT_MON);
  2227  0665  3003               	movlw	3
  2228  0666  3187  27B3  3186   	fcall	_ADC_SelectChannel
  2229  0669                     l1995:
  2230                           
  2231                           ;main.c: 122:     ADC_StartConversion();
  2232  0669  3187  27F0  3186   	fcall	_ADC_StartConversion
  2233  066C                     l1997:
  2234                           
  2235                           ;main.c: 123:     convertedValue = ADC_GetConversionResult();
  2236  066C  3187  27DC  3186   	fcall	_ADC_GetConversionResult
  2237  066F  0871               	movf	?_ADC_GetConversionResult+1,w
  2238  0670  0020               	movlb	0	; select bank0
  2239  0671  00D9               	movwf	read_battery_voltage@convertedValue+1
  2240  0672  0870               	movf	?_ADC_GetConversionResult,w
  2241  0673  00D8               	movwf	read_battery_voltage@convertedValue
  2242  0674                     l1999:
  2243                           
  2244                           ;main.c: 125:     return ( 15.0 * convertedValue/1024.0);
  2245  0674  3044               	movlw	68
  2246  0675  00BD               	movwf	___fldiv@a+3
  2247  0676  3080               	movlw	128
  2248  0677  00BC               	movwf	___fldiv@a+2
  2249  0678  3000               	movlw	0
  2250  0679  00BB               	movwf	___fldiv@a+1
  2251  067A  3000               	movlw	0
  2252  067B  00BA               	movwf	___fldiv@a
  2253  067C  3041               	movlw	65
  2254  067D  00A3               	movwf	___flmul@b+3
  2255  067E  3070               	movlw	112
  2256  067F  00A2               	movwf	___flmul@b+2
  2257  0680  3000               	movlw	0
  2258  0681  00A1               	movwf	___flmul@b+1
  2259  0682  3000               	movlw	0
  2260  0683  00A0               	movwf	___flmul@b
  2261  0684  0858               	movf	read_battery_voltage@convertedValue,w
  2262  0685  00F0               	movwf	___xxtofl@val
  2263  0686  0859               	movf	read_battery_voltage@convertedValue+1,w
  2264  0687  00F1               	movwf	___xxtofl@val+1
  2265  0688  01F2               	clrf	___xxtofl@val+2
  2266  0689  01F3               	clrf	___xxtofl@val+3
  2267  068A  3000               	movlw	0
  2268  068B  3184  24DD  3186   	fcall	___xxtofl
  2269  068E  0873               	movf	?___xxtofl+3,w
  2270  068F  0020               	movlb	0	; select bank0
  2271  0690  00A7               	movwf	___flmul@a+3
  2272  0691  0872               	movf	?___xxtofl+2,w
  2273  0692  00A6               	movwf	___flmul@a+2
  2274  0693  0871               	movf	?___xxtofl+1,w
  2275  0694  00A5               	movwf	___flmul@a+1
  2276  0695  0870               	movf	?___xxtofl,w
  2277  0696  00A4               	movwf	___flmul@a
  2278  0697  3180  2024  3186   	fcall	___flmul
  2279  069A  0020               	movlb	0	; select bank0
  2280  069B  0823               	movf	?___flmul+3,w
  2281  069C  00C1               	movwf	___fldiv@b+3
  2282  069D  0822               	movf	?___flmul+2,w
  2283  069E  00C0               	movwf	___fldiv@b+2
  2284  069F  0821               	movf	?___flmul+1,w
  2285  06A0  00BF               	movwf	___fldiv@b+1
  2286  06A1  0820               	movf	?___flmul,w
  2287  06A2  00BE               	movwf	___fldiv@b
  2288  06A3  3182  227B  3186   	fcall	___fldiv
  2289  06A6  0020               	movlb	0	; select bank0
  2290  06A7  083D               	movf	?___fldiv+3,w
  2291  06A8  00D7               	movwf	?_read_battery_voltage+3
  2292  06A9  083C               	movf	?___fldiv+2,w
  2293  06AA  00D6               	movwf	?_read_battery_voltage+2
  2294  06AB  083B               	movf	?___fldiv+1,w
  2295  06AC  00D5               	movwf	?_read_battery_voltage+1
  2296  06AD  083A               	movf	?___fldiv,w
  2297  06AE  00D4               	movwf	?_read_battery_voltage
  2298  06AF                     l184:
  2299  06AF  0008               	return
  2300  06B0                     __end_of_read_battery_voltage:
  2301                           
  2302                           	psect	text4
  2303  04DD                     __ptext4:	
  2304 ;; *************** function ___xxtofl *****************
  2305 ;; Defined at:
  2306 ;;		line 10 in file "C:\Program Files\Microchip\xc8\v2.36\pic\sources\c99\common\xxtofl.c"
  2307 ;; Parameters:    Size  Location     Type
  2308 ;;  sign            1    wreg     unsigned char 
  2309 ;;  val             4    0[COMMON] long 
  2310 ;; Auto vars:     Size  Location     Type
  2311 ;;  sign            1    8[COMMON] unsigned char 
  2312 ;;  arg             4   10[COMMON] unsigned long 
  2313 ;;  exp             1    9[COMMON] unsigned char 
  2314 ;; Return value:  Size  Location     Type
  2315 ;;                  4    0[COMMON] unsigned char 
  2316 ;; Registers used:
  2317 ;;		wreg, status,2, status,0
  2318 ;; Tracked objects:
  2319 ;;		On entry : 0/0
  2320 ;;		On exit  : 0/0
  2321 ;;		Unchanged: 0/0
  2322 ;; Data sizes:     COMMON   BANK0   BANK1   BANK2   BANK3   BANK4
  2323 ;;      Params:         4       0       0       0       0       0
  2324 ;;      Locals:         6       0       0       0       0       0
  2325 ;;      Temps:          4       0       0       0       0       0
  2326 ;;      Totals:        14       0       0       0       0       0
  2327 ;;Total ram usage:       14 bytes
  2328 ;; Hardware stack levels used: 1
  2329 ;; Hardware stack levels required when called: 3
  2330 ;; This function calls:
  2331 ;;		Nothing
  2332 ;; This function is called by:
  2333 ;;		_read_battery_voltage
  2334 ;; This function uses a non-reentrant model
  2335 ;;
  2336                           
  2337  04DD                     ___xxtofl:	
  2338                           ;psect for function ___xxtofl
  2339                           
  2340                           
  2341                           ;incstack = 0
  2342                           ; Regs used in ___xxtofl: [wreg+status,2+status,0]
  2343                           ;___xxtofl@sign stored from wreg
  2344  04DD  00F8               	movwf	___xxtofl@sign
  2345  04DE                     l1913:
  2346  04DE  0878               	movf	___xxtofl@sign,w
  2347  04DF  1903               	btfsc	3,2
  2348  04E0  2CE2               	goto	u1501
  2349  04E1  2CE3               	goto	u1500
  2350  04E2                     u1501:
  2351  04E2  2CF7               	goto	l1919
  2352  04E3                     u1500:
  2353  04E3                     l1915:
  2354  04E3  1FF3               	btfss	___xxtofl@val+3,7
  2355  04E4  2CE6               	goto	u1511
  2356  04E5  2CE7               	goto	u1510
  2357  04E6                     u1511:
  2358  04E6  2CF7               	goto	l1919
  2359  04E7                     u1510:
  2360  04E7                     l1917:
  2361  04E7  0970               	comf	___xxtofl@val,w
  2362  04E8  00FA               	movwf	___xxtofl@arg
  2363  04E9  0971               	comf	___xxtofl@val+1,w
  2364  04EA  00FB               	movwf	___xxtofl@arg+1
  2365  04EB  0972               	comf	___xxtofl@val+2,w
  2366  04EC  00FC               	movwf	___xxtofl@arg+2
  2367  04ED  0973               	comf	___xxtofl@val+3,w
  2368  04EE  00FD               	movwf	___xxtofl@arg+3
  2369  04EF  0AFA               	incf	___xxtofl@arg,f
  2370  04F0  1903               	skipnz
  2371  04F1  0AFB               	incf	___xxtofl@arg+1,f
  2372  04F2  1903               	skipnz
  2373  04F3  0AFC               	incf	___xxtofl@arg+2,f
  2374  04F4  1903               	skipnz
  2375  04F5  0AFD               	incf	___xxtofl@arg+3,f
  2376  04F6  2CFF               	goto	l862
  2377  04F7                     l1919:
  2378  04F7  0873               	movf	___xxtofl@val+3,w
  2379  04F8  00FD               	movwf	___xxtofl@arg+3
  2380  04F9  0872               	movf	___xxtofl@val+2,w
  2381  04FA  00FC               	movwf	___xxtofl@arg+2
  2382  04FB  0871               	movf	___xxtofl@val+1,w
  2383  04FC  00FB               	movwf	___xxtofl@arg+1
  2384  04FD  0870               	movf	___xxtofl@val,w
  2385  04FE  00FA               	movwf	___xxtofl@arg
  2386  04FF                     l862:
  2387  04FF  0873               	movf	___xxtofl@val+3,w
  2388  0500  0472               	iorwf	___xxtofl@val+2,w
  2389  0501  0471               	iorwf	___xxtofl@val+1,w
  2390  0502  0470               	iorwf	___xxtofl@val,w
  2391  0503  1D03               	skipz
  2392  0504  2D06               	goto	u1521
  2393  0505  2D07               	goto	u1520
  2394  0506                     u1521:
  2395  0506  2D10               	goto	l1925
  2396  0507                     u1520:
  2397  0507                     l1921:
  2398  0507  3000               	movlw	0
  2399  0508  00F3               	movwf	?___xxtofl+3
  2400  0509  3000               	movlw	0
  2401  050A  00F2               	movwf	?___xxtofl+2
  2402  050B  3000               	movlw	0
  2403  050C  00F1               	movwf	?___xxtofl+1
  2404  050D  3000               	movlw	0
  2405  050E  00F0               	movwf	?___xxtofl
  2406  050F  2D88               	goto	l864
  2407  0510                     l1925:
  2408  0510  3096               	movlw	150
  2409  0511  00F4               	movwf	??___xxtofl
  2410  0512  0874               	movf	??___xxtofl,w
  2411  0513  00F9               	movwf	___xxtofl@exp
  2412  0514  2D20               	goto	l1929
  2413  0515                     l1927:
  2414  0515  3001               	movlw	1
  2415  0516  00F4               	movwf	??___xxtofl
  2416  0517  0874               	movf	??___xxtofl,w
  2417  0518  07F9               	addwf	___xxtofl@exp,f
  2418  0519  3001               	movlw	1
  2419  051A                     u1535:
  2420  051A  36FD               	lsrf	___xxtofl@arg+3,f
  2421  051B  0CFC               	rrf	___xxtofl@arg+2,f
  2422  051C  0CFB               	rrf	___xxtofl@arg+1,f
  2423  051D  0CFA               	rrf	___xxtofl@arg,f
  2424  051E  0B89               	decfsz	9,f
  2425  051F  2D1A               	goto	u1535
  2426  0520                     l1929:
  2427  0520  30FE               	movlw	254
  2428  0521  057D               	andwf	___xxtofl@arg+3,w
  2429  0522  1D03               	btfss	3,2
  2430  0523  2D25               	goto	u1541
  2431  0524  2D26               	goto	u1540
  2432  0525                     u1541:
  2433  0525  2D15               	goto	l1927
  2434  0526                     u1540:
  2435  0526  2D3A               	goto	l868
  2436  0527                     l1931:
  2437  0527  3001               	movlw	1
  2438  0528  00F4               	movwf	??___xxtofl
  2439  0529  0874               	movf	??___xxtofl,w
  2440  052A  07F9               	addwf	___xxtofl@exp,f
  2441  052B                     l1933:
  2442  052B  3001               	movlw	1
  2443  052C  07FA               	addwf	___xxtofl@arg,f
  2444  052D  3000               	movlw	0
  2445  052E  3DFB               	addwfc	___xxtofl@arg+1,f
  2446  052F  3000               	movlw	0
  2447  0530  3DFC               	addwfc	___xxtofl@arg+2,f
  2448  0531  3000               	movlw	0
  2449  0532  3DFD               	addwfc	___xxtofl@arg+3,f
  2450  0533                     l1935:
  2451  0533  3001               	movlw	1
  2452  0534                     u1555:
  2453  0534  36FD               	lsrf	___xxtofl@arg+3,f
  2454  0535  0CFC               	rrf	___xxtofl@arg+2,f
  2455  0536  0CFB               	rrf	___xxtofl@arg+1,f
  2456  0537  0CFA               	rrf	___xxtofl@arg,f
  2457  0538  0B89               	decfsz	9,f
  2458  0539  2D34               	goto	u1555
  2459  053A                     l868:
  2460  053A  30FF               	movlw	255
  2461  053B  057D               	andwf	___xxtofl@arg+3,w
  2462  053C  1D03               	btfss	3,2
  2463  053D  2D3F               	goto	u1561
  2464  053E  2D40               	goto	u1560
  2465  053F                     u1561:
  2466  053F  2D27               	goto	l1931
  2467  0540                     u1560:
  2468  0540  2D4A               	goto	l1939
  2469  0541                     l1937:
  2470  0541  3001               	movlw	1
  2471  0542  02F9               	subwf	___xxtofl@exp,f
  2472  0543  3001               	movlw	1
  2473  0544                     u1575:
  2474  0544  35FA               	lslf	___xxtofl@arg,f
  2475  0545  0DFB               	rlf	___xxtofl@arg+1,f
  2476  0546  0DFC               	rlf	___xxtofl@arg+2,f
  2477  0547  0DFD               	rlf	___xxtofl@arg+3,f
  2478  0548  0B89               	decfsz	9,f
  2479  0549  2D44               	goto	u1575
  2480  054A                     l1939:
  2481  054A  1BFC               	btfsc	___xxtofl@arg+2,7
  2482  054B  2D4D               	goto	u1581
  2483  054C  2D4E               	goto	u1580
  2484  054D                     u1581:
  2485  054D  2D54               	goto	l875
  2486  054E                     u1580:
  2487  054E                     l1941:
  2488  054E  3002               	movlw	2
  2489  054F  0279               	subwf	___xxtofl@exp,w
  2490  0550  1803               	skipnc
  2491  0551  2D53               	goto	u1591
  2492  0552  2D54               	goto	u1590
  2493  0553                     u1591:
  2494  0553  2D41               	goto	l1937
  2495  0554                     u1590:
  2496  0554                     l875:
  2497  0554  1879               	btfsc	___xxtofl@exp,0
  2498  0555  2D57               	goto	u1601
  2499  0556  2D58               	goto	u1600
  2500  0557                     u1601:
  2501  0557  2D60               	goto	l876
  2502  0558                     u1600:
  2503  0558                     l1943:
  2504  0558  30FF               	movlw	255
  2505  0559  05FA               	andwf	___xxtofl@arg,f
  2506  055A  30FF               	movlw	255
  2507  055B  05FB               	andwf	___xxtofl@arg+1,f
  2508  055C  307F               	movlw	127
  2509  055D  05FC               	andwf	___xxtofl@arg+2,f
  2510  055E  30FF               	movlw	255
  2511  055F  05FD               	andwf	___xxtofl@arg+3,f
  2512  0560                     l876:
  2513  0560  1003               	clrc
  2514  0561  0CF9               	rrf	___xxtofl@exp,f
  2515  0562                     l1945:
  2516  0562  0879               	movf	___xxtofl@exp,w
  2517  0563  00F4               	movwf	??___xxtofl
  2518  0564  01F5               	clrf	??___xxtofl+1
  2519  0565  01F6               	clrf	??___xxtofl+2
  2520  0566  01F7               	clrf	??___xxtofl+3
  2521  0567  3018               	movlw	24
  2522  0568                     u1615:
  2523  0568  35F4               	lslf	??___xxtofl,f
  2524  0569  0DF5               	rlf	??___xxtofl+1,f
  2525  056A  0DF6               	rlf	??___xxtofl+2,f
  2526  056B  0DF7               	rlf	??___xxtofl+3,f
  2527  056C                     u1610:
  2528  056C  0B89               	decfsz	9,f
  2529  056D  2D68               	goto	u1615
  2530  056E  0874               	movf	??___xxtofl,w
  2531  056F  04FA               	iorwf	___xxtofl@arg,f
  2532  0570  0875               	movf	??___xxtofl+1,w
  2533  0571  04FB               	iorwf	___xxtofl@arg+1,f
  2534  0572  0876               	movf	??___xxtofl+2,w
  2535  0573  04FC               	iorwf	___xxtofl@arg+2,f
  2536  0574  0877               	movf	??___xxtofl+3,w
  2537  0575  04FD               	iorwf	___xxtofl@arg+3,f
  2538  0576                     l1947:
  2539  0576  0878               	movf	___xxtofl@sign,w
  2540  0577  1903               	btfsc	3,2
  2541  0578  2D7A               	goto	u1621
  2542  0579  2D7B               	goto	u1620
  2543  057A                     u1621:
  2544  057A  2D80               	goto	l1953
  2545  057B                     u1620:
  2546  057B                     l1949:
  2547  057B  1FF3               	btfss	___xxtofl@val+3,7
  2548  057C  2D7E               	goto	u1631
  2549  057D  2D7F               	goto	u1630
  2550  057E                     u1631:
  2551  057E  2D80               	goto	l1953
  2552  057F                     u1630:
  2553  057F                     l1951:
  2554  057F  17FD               	bsf	___xxtofl@arg+3,7
  2555  0580                     l1953:
  2556  0580  087D               	movf	___xxtofl@arg+3,w
  2557  0581  00F3               	movwf	?___xxtofl+3
  2558  0582  087C               	movf	___xxtofl@arg+2,w
  2559  0583  00F2               	movwf	?___xxtofl+2
  2560  0584  087B               	movf	___xxtofl@arg+1,w
  2561  0585  00F1               	movwf	?___xxtofl+1
  2562  0586  087A               	movf	___xxtofl@arg,w
  2563  0587  00F0               	movwf	?___xxtofl
  2564  0588                     l864:
  2565  0588  0008               	return
  2566  0589                     __end_of___xxtofl:
  2567                           
  2568                           	psect	text5
  2569  0024                     __ptext5:	
  2570 ;; *************** function ___flmul *****************
  2571 ;; Defined at:
  2572 ;;		line 8 in file "C:\Program Files\Microchip\xc8\v2.36\pic\sources\c99\common\sprcmul.c"
  2573 ;; Parameters:    Size  Location     Type
  2574 ;;  b               4    0[BANK0 ] unsigned char 
  2575 ;;  a               4    4[BANK0 ] unsigned char 
  2576 ;; Auto vars:     Size  Location     Type
  2577 ;;  prod            4   20[BANK0 ] struct .
  2578 ;;  grs             4   14[BANK0 ] unsigned long 
  2579 ;;  temp            2   24[BANK0 ] struct .
  2580 ;;  bexp            1   19[BANK0 ] unsigned char 
  2581 ;;  aexp            1   18[BANK0 ] unsigned char 
  2582 ;;  sign            1   13[BANK0 ] unsigned char 
  2583 ;; Return value:  Size  Location     Type
  2584 ;;                  4    0[BANK0 ] unsigned char 
  2585 ;; Registers used:
  2586 ;;		wreg, status,2, status,0, pclath, cstack
  2587 ;; Tracked objects:
  2588 ;;		On entry : 0/0
  2589 ;;		On exit  : 0/0
  2590 ;;		Unchanged: 0/0
  2591 ;; Data sizes:     COMMON   BANK0   BANK1   BANK2   BANK3   BANK4
  2592 ;;      Params:         0       8       0       0       0       0
  2593 ;;      Locals:         0      13       0       0       0       0
  2594 ;;      Temps:          0       5       0       0       0       0
  2595 ;;      Totals:         0      26       0       0       0       0
  2596 ;;Total ram usage:       26 bytes
  2597 ;; Hardware stack levels used: 1
  2598 ;; Hardware stack levels required when called: 4
  2599 ;; This function calls:
  2600 ;;		__Umul8_16
  2601 ;; This function is called by:
  2602 ;;		_read_battery_voltage
  2603 ;; This function uses a non-reentrant model
  2604 ;;
  2605                           
  2606  0024                     ___flmul:	
  2607                           ;psect for function ___flmul
  2608                           
  2609  0024                     l1773:	
  2610                           ;incstack = 0
  2611                           ; Regs used in ___flmul: [wreg+status,2+status,0+pclath+cstack]
  2612                           
  2613  0024  0020               	movlb	0	; select bank0
  2614  0025  0823               	movf	___flmul@b+3,w
  2615  0026  3980               	andlw	128
  2616  0027  00A8               	movwf	??___flmul
  2617  0028  0828               	movf	??___flmul,w
  2618  0029  00AD               	movwf	___flmul@sign
  2619  002A                     l1775:
  2620  002A  3523               	lslf	___flmul@b+3,w
  2621  002B  00A8               	movwf	??___flmul
  2622  002C  0828               	movf	??___flmul,w
  2623  002D  00B3               	movwf	___flmul@bexp
  2624  002E                     l1777:
  2625  002E  1FA2               	btfss	___flmul@b+2,7
  2626  002F  2831               	goto	u1241
  2627  0030  2832               	goto	u1240
  2628  0031                     u1241:
  2629  0031  2833               	goto	l1781
  2630  0032                     u1240:
  2631  0032                     l1779:
  2632  0032  1433               	bsf	___flmul@bexp,0
  2633  0033                     l1781:
  2634  0033  0833               	movf	___flmul@bexp,w
  2635  0034  1903               	btfsc	3,2
  2636  0035  2837               	goto	u1251
  2637  0036  2838               	goto	u1250
  2638  0037                     u1251:
  2639  0037  2847               	goto	l1789
  2640  0038                     u1250:
  2641  0038                     l1783:
  2642  0038  0A33               	incf	___flmul@bexp,w
  2643  0039  1D03               	btfss	3,2
  2644  003A  283C               	goto	u1261
  2645  003B  283D               	goto	u1260
  2646  003C                     u1261:
  2647  003C  2845               	goto	l1787
  2648  003D                     u1260:
  2649  003D                     l1785:
  2650  003D  3000               	movlw	0
  2651  003E  00A3               	movwf	___flmul@b+3
  2652  003F  3000               	movlw	0
  2653  0040  00A2               	movwf	___flmul@b+2
  2654  0041  3000               	movlw	0
  2655  0042  00A1               	movwf	___flmul@b+1
  2656  0043  3000               	movlw	0
  2657  0044  00A0               	movwf	___flmul@b
  2658  0045                     l1787:
  2659  0045  17A2               	bsf	___flmul@b+2,7
  2660  0046  284F               	goto	l1791
  2661  0047                     l1789:
  2662  0047  3000               	movlw	0
  2663  0048  00A3               	movwf	___flmul@b+3
  2664  0049  3000               	movlw	0
  2665  004A  00A2               	movwf	___flmul@b+2
  2666  004B  3000               	movlw	0
  2667  004C  00A1               	movwf	___flmul@b+1
  2668  004D  3000               	movlw	0
  2669  004E  00A0               	movwf	___flmul@b
  2670  004F                     l1791:
  2671  004F  0827               	movf	___flmul@a+3,w
  2672  0050  3980               	andlw	128
  2673  0051  00A8               	movwf	??___flmul
  2674  0052  0828               	movf	??___flmul,w
  2675  0053  06AD               	xorwf	___flmul@sign,f
  2676  0054                     l1793:
  2677  0054  3527               	lslf	___flmul@a+3,w
  2678  0055  00A8               	movwf	??___flmul
  2679  0056  0828               	movf	??___flmul,w
  2680  0057  00B2               	movwf	___flmul@aexp
  2681  0058                     l1795:
  2682  0058  1FA6               	btfss	___flmul@a+2,7
  2683  0059  285B               	goto	u1271
  2684  005A  285C               	goto	u1270
  2685  005B                     u1271:
  2686  005B  285D               	goto	l1799
  2687  005C                     u1270:
  2688  005C                     l1797:
  2689  005C  1432               	bsf	___flmul@aexp,0
  2690  005D                     l1799:
  2691  005D  0832               	movf	___flmul@aexp,w
  2692  005E  1903               	btfsc	3,2
  2693  005F  2861               	goto	u1281
  2694  0060  2862               	goto	u1280
  2695  0061                     u1281:
  2696  0061  2871               	goto	l1807
  2697  0062                     u1280:
  2698  0062                     l1801:
  2699  0062  0A32               	incf	___flmul@aexp,w
  2700  0063  1D03               	btfss	3,2
  2701  0064  2866               	goto	u1291
  2702  0065  2867               	goto	u1290
  2703  0066                     u1291:
  2704  0066  286F               	goto	l1805
  2705  0067                     u1290:
  2706  0067                     l1803:
  2707  0067  3000               	movlw	0
  2708  0068  00A7               	movwf	___flmul@a+3
  2709  0069  3000               	movlw	0
  2710  006A  00A6               	movwf	___flmul@a+2
  2711  006B  3000               	movlw	0
  2712  006C  00A5               	movwf	___flmul@a+1
  2713  006D  3000               	movlw	0
  2714  006E  00A4               	movwf	___flmul@a
  2715  006F                     l1805:
  2716  006F  17A6               	bsf	___flmul@a+2,7
  2717  0070  2879               	goto	l1809
  2718  0071                     l1807:
  2719  0071  3000               	movlw	0
  2720  0072  00A7               	movwf	___flmul@a+3
  2721  0073  3000               	movlw	0
  2722  0074  00A6               	movwf	___flmul@a+2
  2723  0075  3000               	movlw	0
  2724  0076  00A5               	movwf	___flmul@a+1
  2725  0077  3000               	movlw	0
  2726  0078  00A4               	movwf	___flmul@a
  2727  0079                     l1809:
  2728  0079  0832               	movf	___flmul@aexp,w
  2729  007A  1903               	btfsc	3,2
  2730  007B  287D               	goto	u1301
  2731  007C  287E               	goto	u1300
  2732  007D                     u1301:
  2733  007D  2883               	goto	l1813
  2734  007E                     u1300:
  2735  007E                     l1811:
  2736  007E  0833               	movf	___flmul@bexp,w
  2737  007F  1D03               	btfss	3,2
  2738  0080  2882               	goto	u1311
  2739  0081  2883               	goto	u1310
  2740  0082                     u1311:
  2741  0082  288C               	goto	l1817
  2742  0083                     u1310:
  2743  0083                     l1813:
  2744  0083  3000               	movlw	0
  2745  0084  00A3               	movwf	?___flmul+3
  2746  0085  3000               	movlw	0
  2747  0086  00A2               	movwf	?___flmul+2
  2748  0087  3000               	movlw	0
  2749  0088  00A1               	movwf	?___flmul+1
  2750  0089  3000               	movlw	0
  2751  008A  00A0               	movwf	?___flmul
  2752  008B  2A7A               	goto	l818
  2753  008C                     l1817:
  2754  008C  0820               	movf	___flmul@b,w
  2755  008D  00A8               	movwf	??___flmul
  2756  008E  0828               	movf	??___flmul,w
  2757  008F  00F0               	movwf	__Umul8_16@multiplicand
  2758  0090  0826               	movf	___flmul@a+2,w
  2759  0091  3186  26E5  3180   	fcall	__Umul8_16
  2760  0094  0871               	movf	?__Umul8_16+1,w
  2761  0095  0020               	movlb	0	; select bank0
  2762  0096  00B9               	movwf	___flmul@temp+1
  2763  0097  0870               	movf	?__Umul8_16,w
  2764  0098  00B8               	movwf	___flmul@temp
  2765  0099                     l1819:
  2766  0099  0838               	movf	___flmul@temp,w
  2767  009A  00A8               	movwf	??___flmul
  2768  009B  01A9               	clrf	??___flmul+1
  2769  009C  01AA               	clrf	??___flmul+2
  2770  009D  01AB               	clrf	??___flmul+3
  2771  009E  082B               	movf	??___flmul+3,w
  2772  009F  00B1               	movwf	___flmul@grs+3
  2773  00A0  082A               	movf	??___flmul+2,w
  2774  00A1  00B0               	movwf	___flmul@grs+2
  2775  00A2  0829               	movf	??___flmul+1,w
  2776  00A3  00AF               	movwf	___flmul@grs+1
  2777  00A4  0828               	movf	??___flmul,w
  2778  00A5  00AE               	movwf	___flmul@grs
  2779  00A6                     l1821:
  2780  00A6  0839               	movf	___flmul@temp+1,w
  2781  00A7  00A8               	movwf	??___flmul
  2782  00A8  01A9               	clrf	??___flmul+1
  2783  00A9  01AA               	clrf	??___flmul+2
  2784  00AA  01AB               	clrf	??___flmul+3
  2785  00AB  082B               	movf	??___flmul+3,w
  2786  00AC  00B7               	movwf	___flmul@prod+3
  2787  00AD  082A               	movf	??___flmul+2,w
  2788  00AE  00B6               	movwf	___flmul@prod+2
  2789  00AF  0829               	movf	??___flmul+1,w
  2790  00B0  00B5               	movwf	___flmul@prod+1
  2791  00B1  0828               	movf	??___flmul,w
  2792  00B2  00B4               	movwf	___flmul@prod
  2793  00B3  0821               	movf	___flmul@b+1,w
  2794  00B4  00A8               	movwf	??___flmul
  2795  00B5  0828               	movf	??___flmul,w
  2796  00B6  00F0               	movwf	__Umul8_16@multiplicand
  2797  00B7  0825               	movf	___flmul@a+1,w
  2798  00B8  3186  26E5  3180   	fcall	__Umul8_16
  2799  00BB  0871               	movf	?__Umul8_16+1,w
  2800  00BC  0020               	movlb	0	; select bank0
  2801  00BD  00B9               	movwf	___flmul@temp+1
  2802  00BE  0870               	movf	?__Umul8_16,w
  2803  00BF  00B8               	movwf	___flmul@temp
  2804  00C0                     l1823:
  2805  00C0  0838               	movf	___flmul@temp,w
  2806  00C1  00A8               	movwf	??___flmul
  2807  00C2  01A9               	clrf	??___flmul+1
  2808  00C3  01AA               	clrf	??___flmul+2
  2809  00C4  01AB               	clrf	??___flmul+3
  2810  00C5  0828               	movf	??___flmul,w
  2811  00C6  07AE               	addwf	___flmul@grs,f
  2812  00C7  0829               	movf	??___flmul+1,w
  2813  00C8  3DAF               	addwfc	___flmul@grs+1,f
  2814  00C9  082A               	movf	??___flmul+2,w
  2815  00CA  3DB0               	addwfc	___flmul@grs+2,f
  2816  00CB  082B               	movf	??___flmul+3,w
  2817  00CC  3DB1               	addwfc	___flmul@grs+3,f
  2818  00CD                     l1825:
  2819  00CD  0839               	movf	___flmul@temp+1,w
  2820  00CE  00A8               	movwf	??___flmul
  2821  00CF  01A9               	clrf	??___flmul+1
  2822  00D0  01AA               	clrf	??___flmul+2
  2823  00D1  01AB               	clrf	??___flmul+3
  2824  00D2  0828               	movf	??___flmul,w
  2825  00D3  07B4               	addwf	___flmul@prod,f
  2826  00D4  0829               	movf	??___flmul+1,w
  2827  00D5  3DB5               	addwfc	___flmul@prod+1,f
  2828  00D6  082A               	movf	??___flmul+2,w
  2829  00D7  3DB6               	addwfc	___flmul@prod+2,f
  2830  00D8  082B               	movf	??___flmul+3,w
  2831  00D9  3DB7               	addwfc	___flmul@prod+3,f
  2832  00DA  0822               	movf	___flmul@b+2,w
  2833  00DB  00A8               	movwf	??___flmul
  2834  00DC  0828               	movf	??___flmul,w
  2835  00DD  00F0               	movwf	__Umul8_16@multiplicand
  2836  00DE  0824               	movf	___flmul@a,w
  2837  00DF  3186  26E5  3180   	fcall	__Umul8_16
  2838  00E2  0871               	movf	?__Umul8_16+1,w
  2839  00E3  0020               	movlb	0	; select bank0
  2840  00E4  00B9               	movwf	___flmul@temp+1
  2841  00E5  0870               	movf	?__Umul8_16,w
  2842  00E6  00B8               	movwf	___flmul@temp
  2843  00E7                     l1827:
  2844  00E7  0838               	movf	___flmul@temp,w
  2845  00E8  00A8               	movwf	??___flmul
  2846  00E9  01A9               	clrf	??___flmul+1
  2847  00EA  01AA               	clrf	??___flmul+2
  2848  00EB  01AB               	clrf	??___flmul+3
  2849  00EC  0828               	movf	??___flmul,w
  2850  00ED  07AE               	addwf	___flmul@grs,f
  2851  00EE  0829               	movf	??___flmul+1,w
  2852  00EF  3DAF               	addwfc	___flmul@grs+1,f
  2853  00F0  082A               	movf	??___flmul+2,w
  2854  00F1  3DB0               	addwfc	___flmul@grs+2,f
  2855  00F2  082B               	movf	??___flmul+3,w
  2856  00F3  3DB1               	addwfc	___flmul@grs+3,f
  2857  00F4                     l1829:
  2858  00F4  0839               	movf	___flmul@temp+1,w
  2859  00F5  00A8               	movwf	??___flmul
  2860  00F6  01A9               	clrf	??___flmul+1
  2861  00F7  01AA               	clrf	??___flmul+2
  2862  00F8  01AB               	clrf	??___flmul+3
  2863  00F9  0828               	movf	??___flmul,w
  2864  00FA  07B4               	addwf	___flmul@prod,f
  2865  00FB  0829               	movf	??___flmul+1,w
  2866  00FC  3DB5               	addwfc	___flmul@prod+1,f
  2867  00FD  082A               	movf	??___flmul+2,w
  2868  00FE  3DB6               	addwfc	___flmul@prod+2,f
  2869  00FF  082B               	movf	??___flmul+3,w
  2870  0100  3DB7               	addwfc	___flmul@prod+3,f
  2871  0101                     l1831:
  2872  0101  3008               	movlw	8
  2873  0102                     u1325:
  2874  0102  35AE               	lslf	___flmul@grs,f
  2875  0103  0DAF               	rlf	___flmul@grs+1,f
  2876  0104  0DB0               	rlf	___flmul@grs+2,f
  2877  0105  0DB1               	rlf	___flmul@grs+3,f
  2878  0106  0B89               	decfsz	9,f
  2879  0107  2902               	goto	u1325
  2880  0108                     l1833:
  2881  0108  0821               	movf	___flmul@b+1,w
  2882  0109  00A8               	movwf	??___flmul
  2883  010A  0828               	movf	??___flmul,w
  2884  010B  00F0               	movwf	__Umul8_16@multiplicand
  2885  010C  0824               	movf	___flmul@a,w
  2886  010D  3186  26E5  3180   	fcall	__Umul8_16
  2887  0110  0871               	movf	?__Umul8_16+1,w
  2888  0111  0020               	movlb	0	; select bank0
  2889  0112  00B9               	movwf	___flmul@temp+1
  2890  0113  0870               	movf	?__Umul8_16,w
  2891  0114  00B8               	movwf	___flmul@temp
  2892  0115                     l1835:
  2893  0115  0838               	movf	___flmul@temp,w
  2894  0116  07AE               	addwf	___flmul@grs,f
  2895  0117  0839               	movf	___flmul@temp+1,w
  2896  0118  3DAF               	addwfc	___flmul@grs+1,f
  2897  0119  3000               	movlw	0
  2898  011A  3DB0               	addwfc	___flmul@grs+2,f
  2899  011B  3DB1               	addwfc	___flmul@grs+3,f
  2900  011C                     l1837:
  2901  011C  0820               	movf	___flmul@b,w
  2902  011D  00A8               	movwf	??___flmul
  2903  011E  0828               	movf	??___flmul,w
  2904  011F  00F0               	movwf	__Umul8_16@multiplicand
  2905  0120  0825               	movf	___flmul@a+1,w
  2906  0121  3186  26E5  3180   	fcall	__Umul8_16
  2907  0124  0871               	movf	?__Umul8_16+1,w
  2908  0125  0020               	movlb	0	; select bank0
  2909  0126  00B9               	movwf	___flmul@temp+1
  2910  0127  0870               	movf	?__Umul8_16,w
  2911  0128  00B8               	movwf	___flmul@temp
  2912  0129                     l1839:
  2913  0129  0838               	movf	___flmul@temp,w
  2914  012A  07AE               	addwf	___flmul@grs,f
  2915  012B  0839               	movf	___flmul@temp+1,w
  2916  012C  3DAF               	addwfc	___flmul@grs+1,f
  2917  012D  3000               	movlw	0
  2918  012E  3DB0               	addwfc	___flmul@grs+2,f
  2919  012F  3DB1               	addwfc	___flmul@grs+3,f
  2920  0130                     l1841:
  2921  0130  3008               	movlw	8
  2922  0131                     u1335:
  2923  0131  35AE               	lslf	___flmul@grs,f
  2924  0132  0DAF               	rlf	___flmul@grs+1,f
  2925  0133  0DB0               	rlf	___flmul@grs+2,f
  2926  0134  0DB1               	rlf	___flmul@grs+3,f
  2927  0135  0B89               	decfsz	9,f
  2928  0136  2931               	goto	u1335
  2929  0137  0820               	movf	___flmul@b,w
  2930  0138  00A8               	movwf	??___flmul
  2931  0139  0828               	movf	??___flmul,w
  2932  013A  00F0               	movwf	__Umul8_16@multiplicand
  2933  013B  0824               	movf	___flmul@a,w
  2934  013C  3186  26E5  3180   	fcall	__Umul8_16
  2935  013F  0871               	movf	?__Umul8_16+1,w
  2936  0140  0020               	movlb	0	; select bank0
  2937  0141  00B9               	movwf	___flmul@temp+1
  2938  0142  0870               	movf	?__Umul8_16,w
  2939  0143  00B8               	movwf	___flmul@temp
  2940  0144                     l1843:
  2941  0144  0838               	movf	___flmul@temp,w
  2942  0145  07AE               	addwf	___flmul@grs,f
  2943  0146  0839               	movf	___flmul@temp+1,w
  2944  0147  3DAF               	addwfc	___flmul@grs+1,f
  2945  0148  3000               	movlw	0
  2946  0149  3DB0               	addwfc	___flmul@grs+2,f
  2947  014A  3DB1               	addwfc	___flmul@grs+3,f
  2948  014B                     l1845:
  2949  014B  0821               	movf	___flmul@b+1,w
  2950  014C  00A8               	movwf	??___flmul
  2951  014D  0828               	movf	??___flmul,w
  2952  014E  00F0               	movwf	__Umul8_16@multiplicand
  2953  014F  0826               	movf	___flmul@a+2,w
  2954  0150  3186  26E5  3180   	fcall	__Umul8_16
  2955  0153  0871               	movf	?__Umul8_16+1,w
  2956  0154  0020               	movlb	0	; select bank0
  2957  0155  00B9               	movwf	___flmul@temp+1
  2958  0156  0870               	movf	?__Umul8_16,w
  2959  0157  00B8               	movwf	___flmul@temp
  2960  0158  0838               	movf	___flmul@temp,w
  2961  0159  07B4               	addwf	___flmul@prod,f
  2962  015A  0839               	movf	___flmul@temp+1,w
  2963  015B  3DB5               	addwfc	___flmul@prod+1,f
  2964  015C  3000               	movlw	0
  2965  015D  3DB6               	addwfc	___flmul@prod+2,f
  2966  015E  3DB7               	addwfc	___flmul@prod+3,f
  2967  015F                     l1847:
  2968  015F  0822               	movf	___flmul@b+2,w
  2969  0160  00A8               	movwf	??___flmul
  2970  0161  0828               	movf	??___flmul,w
  2971  0162  00F0               	movwf	__Umul8_16@multiplicand
  2972  0163  0825               	movf	___flmul@a+1,w
  2973  0164  3186  26E5  3180   	fcall	__Umul8_16
  2974  0167  0871               	movf	?__Umul8_16+1,w
  2975  0168  0020               	movlb	0	; select bank0
  2976  0169  00B9               	movwf	___flmul@temp+1
  2977  016A  0870               	movf	?__Umul8_16,w
  2978  016B  00B8               	movwf	___flmul@temp
  2979  016C                     l1849:
  2980  016C  0838               	movf	___flmul@temp,w
  2981  016D  07B4               	addwf	___flmul@prod,f
  2982  016E  0839               	movf	___flmul@temp+1,w
  2983  016F  3DB5               	addwfc	___flmul@prod+1,f
  2984  0170  3000               	movlw	0
  2985  0171  3DB6               	addwfc	___flmul@prod+2,f
  2986  0172  3DB7               	addwfc	___flmul@prod+3,f
  2987  0173  0822               	movf	___flmul@b+2,w
  2988  0174  00A8               	movwf	??___flmul
  2989  0175  0828               	movf	??___flmul,w
  2990  0176  00F0               	movwf	__Umul8_16@multiplicand
  2991  0177  0826               	movf	___flmul@a+2,w
  2992  0178  3186  26E5  3180   	fcall	__Umul8_16
  2993  017B  0871               	movf	?__Umul8_16+1,w
  2994  017C  0020               	movlb	0	; select bank0
  2995  017D  00B9               	movwf	___flmul@temp+1
  2996  017E  0870               	movf	?__Umul8_16,w
  2997  017F  00B8               	movwf	___flmul@temp
  2998  0180                     l1851:
  2999  0180  0838               	movf	___flmul@temp,w
  3000  0181  00A8               	movwf	??___flmul
  3001  0182  0839               	movf	___flmul@temp+1,w
  3002  0183  00A9               	movwf	??___flmul+1
  3003  0184  01AA               	clrf	??___flmul+2
  3004  0185  01AB               	clrf	??___flmul+3
  3005  0186  3008               	movlw	8
  3006  0187                     u1345:
  3007  0187  35A8               	lslf	??___flmul,f
  3008  0188  0DA9               	rlf	??___flmul+1,f
  3009  0189  0DAA               	rlf	??___flmul+2,f
  3010  018A  0DAB               	rlf	??___flmul+3,f
  3011  018B                     u1340:
  3012  018B  0B89               	decfsz	9,f
  3013  018C  2987               	goto	u1345
  3014  018D  0828               	movf	??___flmul,w
  3015  018E  07B4               	addwf	___flmul@prod,f
  3016  018F  0829               	movf	??___flmul+1,w
  3017  0190  3DB5               	addwfc	___flmul@prod+1,f
  3018  0191  082A               	movf	??___flmul+2,w
  3019  0192  3DB6               	addwfc	___flmul@prod+2,f
  3020  0193  082B               	movf	??___flmul+3,w
  3021  0194  3DB7               	addwfc	___flmul@prod+3,f
  3022  0195                     l1853:
  3023  0195  082E               	movf	___flmul@grs,w
  3024  0196  00A8               	movwf	??___flmul
  3025  0197  082F               	movf	___flmul@grs+1,w
  3026  0198  00A9               	movwf	??___flmul+1
  3027  0199  0830               	movf	___flmul@grs+2,w
  3028  019A  00AA               	movwf	??___flmul+2
  3029  019B  0831               	movf	___flmul@grs+3,w
  3030  019C  00AB               	movwf	??___flmul+3
  3031  019D  3018               	movlw	24
  3032  019E                     u1355:
  3033  019E  36AB               	lsrf	??___flmul+3,f
  3034  019F  0CAA               	rrf	??___flmul+2,f
  3035  01A0  0CA9               	rrf	??___flmul+1,f
  3036  01A1  0CA8               	rrf	??___flmul,f
  3037  01A2                     u1350:
  3038  01A2  0B89               	decfsz	9,f
  3039  01A3  299E               	goto	u1355
  3040  01A4  0828               	movf	??___flmul,w
  3041  01A5  07B4               	addwf	___flmul@prod,f
  3042  01A6  0829               	movf	??___flmul+1,w
  3043  01A7  3DB5               	addwfc	___flmul@prod+1,f
  3044  01A8  082A               	movf	??___flmul+2,w
  3045  01A9  3DB6               	addwfc	___flmul@prod+2,f
  3046  01AA  082B               	movf	??___flmul+3,w
  3047  01AB  3DB7               	addwfc	___flmul@prod+3,f
  3048  01AC                     l1855:
  3049  01AC  3008               	movlw	8
  3050  01AD                     u1365:
  3051  01AD  35AE               	lslf	___flmul@grs,f
  3052  01AE  0DAF               	rlf	___flmul@grs+1,f
  3053  01AF  0DB0               	rlf	___flmul@grs+2,f
  3054  01B0  0DB1               	rlf	___flmul@grs+3,f
  3055  01B1  0B89               	decfsz	9,f
  3056  01B2  29AD               	goto	u1365
  3057  01B3                     l1857:
  3058  01B3  0833               	movf	___flmul@bexp,w
  3059  01B4  0732               	addwf	___flmul@aexp,w
  3060  01B5  00A8               	movwf	??___flmul
  3061  01B6  01A9               	clrf	??___flmul+1
  3062  01B7  0DA9               	rlf	??___flmul+1,f
  3063  01B8  0828               	movf	??___flmul,w
  3064  01B9  3E82               	addlw	130
  3065  01BA  00B8               	movwf	___flmul@temp
  3066  01BB  30FF               	movlw	255
  3067  01BC  3D29               	addwfc	??___flmul+1,w
  3068  01BD  00B9               	movwf	___flmul@temp+1
  3069  01BE  29D6               	goto	l1869
  3070  01BF                     l1859:
  3071  01BF  3001               	movlw	1
  3072  01C0                     u1375:
  3073  01C0  35B4               	lslf	___flmul@prod,f
  3074  01C1  0DB5               	rlf	___flmul@prod+1,f
  3075  01C2  0DB6               	rlf	___flmul@prod+2,f
  3076  01C3  0DB7               	rlf	___flmul@prod+3,f
  3077  01C4  0B89               	decfsz	9,f
  3078  01C5  29C0               	goto	u1375
  3079  01C6                     l1861:
  3080  01C6  1FB1               	btfss	___flmul@grs+3,7
  3081  01C7  29C9               	goto	u1381
  3082  01C8  29CA               	goto	u1380
  3083  01C9                     u1381:
  3084  01C9  29CB               	goto	l1865
  3085  01CA                     u1380:
  3086  01CA                     l1863:
  3087  01CA  1434               	bsf	___flmul@prod,0
  3088  01CB                     l1865:
  3089  01CB  3001               	movlw	1
  3090  01CC                     u1395:
  3091  01CC  35AE               	lslf	___flmul@grs,f
  3092  01CD  0DAF               	rlf	___flmul@grs+1,f
  3093  01CE  0DB0               	rlf	___flmul@grs+2,f
  3094  01CF  0DB1               	rlf	___flmul@grs+3,f
  3095  01D0  0B89               	decfsz	9,f
  3096  01D1  29CC               	goto	u1395
  3097  01D2                     l1867:
  3098  01D2  30FF               	movlw	255
  3099  01D3  07B8               	addwf	___flmul@temp,f
  3100  01D4  30FF               	movlw	255
  3101  01D5  3DB9               	addwfc	___flmul@temp+1,f
  3102  01D6                     l1869:
  3103  01D6  1FB6               	btfss	___flmul@prod+2,7
  3104  01D7  29D9               	goto	u1401
  3105  01D8  29DA               	goto	u1400
  3106  01D9                     u1401:
  3107  01D9  29BF               	goto	l1859
  3108  01DA                     u1400:
  3109  01DA                     l1871:
  3110  01DA  01B2               	clrf	___flmul@aexp
  3111  01DB                     l1873:
  3112  01DB  1FB1               	btfss	___flmul@grs+3,7
  3113  01DC  29DE               	goto	u1411
  3114  01DD  29DF               	goto	u1410
  3115  01DE                     u1411:
  3116  01DE  29FB               	goto	l1881
  3117  01DF                     u1410:
  3118  01DF                     l1875:
  3119  01DF  30FF               	movlw	255
  3120  01E0  052E               	andwf	___flmul@grs,w
  3121  01E1  00A8               	movwf	??___flmul
  3122  01E2  30FF               	movlw	255
  3123  01E3  052F               	andwf	___flmul@grs+1,w
  3124  01E4  00A9               	movwf	??___flmul+1
  3125  01E5  30FF               	movlw	255
  3126  01E6  0530               	andwf	___flmul@grs+2,w
  3127  01E7  00AA               	movwf	??___flmul+2
  3128  01E8  307F               	movlw	127
  3129  01E9  0531               	andwf	___flmul@grs+3,w
  3130  01EA  00AB               	movwf	??___flmul+3
  3131  01EB  082B               	movf	??___flmul+3,w
  3132  01EC  042A               	iorwf	??___flmul+2,w
  3133  01ED  0429               	iorwf	??___flmul+1,w
  3134  01EE  0428               	iorwf	??___flmul,w
  3135  01EF  1903               	skipnz
  3136  01F0  29F2               	goto	u1421
  3137  01F1  29F3               	goto	u1420
  3138  01F2                     u1421:
  3139  01F2  29F6               	goto	l824
  3140  01F3                     u1420:
  3141  01F3                     l1877:
  3142  01F3  01B2               	clrf	___flmul@aexp
  3143  01F4  0AB2               	incf	___flmul@aexp,f
  3144  01F5  29FB               	goto	l1881
  3145  01F6                     l824:
  3146  01F6  1C34               	btfss	___flmul@prod,0
  3147  01F7  29F9               	goto	u1431
  3148  01F8  29FA               	goto	u1430
  3149  01F9                     u1431:
  3150  01F9  29FB               	goto	l1881
  3151  01FA                     u1430:
  3152  01FA  29F3               	goto	l1877
  3153  01FB                     l1881:
  3154  01FB  0832               	movf	___flmul@aexp,w
  3155  01FC  1903               	btfsc	3,2
  3156  01FD  29FF               	goto	u1441
  3157  01FE  2A00               	goto	u1440
  3158  01FF                     u1441:
  3159  01FF  2A28               	goto	l1891
  3160  0200                     u1440:
  3161  0200                     l1883:
  3162  0200  3001               	movlw	1
  3163  0201  07B4               	addwf	___flmul@prod,f
  3164  0202  3000               	movlw	0
  3165  0203  3DB5               	addwfc	___flmul@prod+1,f
  3166  0204  3000               	movlw	0
  3167  0205  3DB6               	addwfc	___flmul@prod+2,f
  3168  0206  3000               	movlw	0
  3169  0207  3DB7               	addwfc	___flmul@prod+3,f
  3170  0208                     l1885:
  3171  0208  1C37               	btfss	___flmul@prod+3,0
  3172  0209  2A0B               	goto	u1451
  3173  020A  2A0C               	goto	u1450
  3174  020B                     u1451:
  3175  020B  2A28               	goto	l1891
  3176  020C                     u1450:
  3177  020C                     l1887:
  3178  020C  0834               	movf	___flmul@prod,w
  3179  020D  00A8               	movwf	??___flmul
  3180  020E  0835               	movf	___flmul@prod+1,w
  3181  020F  00A9               	movwf	??___flmul+1
  3182  0210  0836               	movf	___flmul@prod+2,w
  3183  0211  00AA               	movwf	??___flmul+2
  3184  0212  0837               	movf	___flmul@prod+3,w
  3185  0213  00AB               	movwf	??___flmul+3
  3186  0214  3001               	movlw	1
  3187  0215  00AC               	movwf	??___flmul+4
  3188  0216                     u1465:
  3189  0216  37AB               	asrf	??___flmul+3,f
  3190  0217  0CAA               	rrf	??___flmul+2,f
  3191  0218  0CA9               	rrf	??___flmul+1,f
  3192  0219  0CA8               	rrf	??___flmul,f
  3193  021A                     u1460:
  3194  021A  0BAC               	decfsz	??___flmul+4,f
  3195  021B  2A16               	goto	u1465
  3196  021C  082B               	movf	??___flmul+3,w
  3197  021D  00B7               	movwf	___flmul@prod+3
  3198  021E  082A               	movf	??___flmul+2,w
  3199  021F  00B6               	movwf	___flmul@prod+2
  3200  0220  0829               	movf	??___flmul+1,w
  3201  0221  00B5               	movwf	___flmul@prod+1
  3202  0222  0828               	movf	??___flmul,w
  3203  0223  00B4               	movwf	___flmul@prod
  3204  0224                     l1889:
  3205  0224  3001               	movlw	1
  3206  0225  07B8               	addwf	___flmul@temp,f
  3207  0226  3000               	movlw	0
  3208  0227  3DB9               	addwfc	___flmul@temp+1,f
  3209  0228                     l1891:
  3210  0228  0839               	movf	___flmul@temp+1,w
  3211  0229  3A80               	xorlw	128
  3212  022A  00A8               	movwf	??___flmul
  3213  022B  3080               	movlw	128
  3214  022C  0228               	subwf	??___flmul,w
  3215  022D  1D03               	skipz
  3216  022E  2A31               	goto	u1475
  3217  022F  30FF               	movlw	255
  3218  0230  0238               	subwf	___flmul@temp,w
  3219  0231                     u1475:
  3220  0231  1C03               	skipc
  3221  0232  2A34               	goto	u1471
  3222  0233  2A35               	goto	u1470
  3223  0234                     u1471:
  3224  0234  2A3F               	goto	l1895
  3225  0235                     u1470:
  3226  0235                     l1893:
  3227  0235  307F               	movlw	127
  3228  0236  0020               	movlb	0	; select bank0
  3229  0237  00B7               	movwf	___flmul@prod+3
  3230  0238  3080               	movlw	128
  3231  0239  00B6               	movwf	___flmul@prod+2
  3232  023A  3000               	movlw	0
  3233  023B  00B5               	movwf	___flmul@prod+1
  3234  023C  3000               	movlw	0
  3235  023D  00B4               	movwf	___flmul@prod
  3236  023E  2A6E               	goto	l830
  3237  023F                     l1895:
  3238  023F  0020               	movlb	0	; select bank0
  3239  0240  0839               	movf	___flmul@temp+1,w
  3240  0241  3A80               	xorlw	128
  3241  0242  00A8               	movwf	??___flmul
  3242  0243  3080               	movlw	128
  3243  0244  0228               	subwf	??___flmul,w
  3244  0245  1D03               	skipz
  3245  0246  2A49               	goto	u1485
  3246  0247  3001               	movlw	1
  3247  0248  0238               	subwf	___flmul@temp,w
  3248  0249                     u1485:
  3249  0249  1803               	skipnc
  3250  024A  2A4C               	goto	u1481
  3251  024B  2A4D               	goto	u1480
  3252  024C                     u1481:
  3253  024C  2A58               	goto	l1901
  3254  024D                     u1480:
  3255  024D                     l1897:
  3256  024D  3000               	movlw	0
  3257  024E  0020               	movlb	0	; select bank0
  3258  024F  00B7               	movwf	___flmul@prod+3
  3259  0250  3000               	movlw	0
  3260  0251  00B6               	movwf	___flmul@prod+2
  3261  0252  3000               	movlw	0
  3262  0253  00B5               	movwf	___flmul@prod+1
  3263  0254  3000               	movlw	0
  3264  0255  00B4               	movwf	___flmul@prod
  3265  0256                     l1899:
  3266  0256  01AD               	clrf	___flmul@sign
  3267  0257  2A6E               	goto	l830
  3268  0258                     l1901:
  3269  0258  0020               	movlb	0	; select bank0
  3270  0259  0838               	movf	___flmul@temp,w
  3271  025A  00A8               	movwf	??___flmul
  3272  025B  0828               	movf	??___flmul,w
  3273  025C  00B3               	movwf	___flmul@bexp
  3274  025D  30FF               	movlw	255
  3275  025E  05B4               	andwf	___flmul@prod,f
  3276  025F  30FF               	movlw	255
  3277  0260  05B5               	andwf	___flmul@prod+1,f
  3278  0261  307F               	movlw	127
  3279  0262  05B6               	andwf	___flmul@prod+2,f
  3280  0263  3000               	movlw	0
  3281  0264  05B7               	andwf	___flmul@prod+3,f
  3282  0265                     l1903:
  3283  0265  1C33               	btfss	___flmul@bexp,0
  3284  0266  2A68               	goto	u1491
  3285  0267  2A69               	goto	u1490
  3286  0268                     u1491:
  3287  0268  2A6A               	goto	l1907
  3288  0269                     u1490:
  3289  0269                     l1905:
  3290  0269  17B6               	bsf	___flmul@prod+2,7
  3291  026A                     l1907:
  3292  026A  3633               	lsrf	___flmul@bexp,w
  3293  026B  00A8               	movwf	??___flmul
  3294  026C  0828               	movf	??___flmul,w
  3295  026D  00B7               	movwf	___flmul@prod+3
  3296  026E                     l830:
  3297  026E  082D               	movf	___flmul@sign,w
  3298  026F  00A8               	movwf	??___flmul
  3299  0270  0828               	movf	??___flmul,w
  3300  0271  04B7               	iorwf	___flmul@prod+3,f
  3301  0272                     l1909:
  3302  0272  0837               	movf	___flmul@prod+3,w
  3303  0273  00A3               	movwf	?___flmul+3
  3304  0274  0836               	movf	___flmul@prod+2,w
  3305  0275  00A2               	movwf	?___flmul+2
  3306  0276  0835               	movf	___flmul@prod+1,w
  3307  0277  00A1               	movwf	?___flmul+1
  3308  0278  0834               	movf	___flmul@prod,w
  3309  0279  00A0               	movwf	?___flmul
  3310  027A                     l818:
  3311  027A  0008               	return
  3312  027B                     __end_of___flmul:
  3313                           
  3314                           	psect	text6
  3315  06E5                     __ptext6:	
  3316 ;; *************** function __Umul8_16 *****************
  3317 ;; Defined at:
  3318 ;;		line 4 in file "C:\Program Files\Microchip\xc8\v2.36\pic\sources\c99\common\Umul8_16.c"
  3319 ;; Parameters:    Size  Location     Type
  3320 ;;  multiplier      1    wreg     unsigned char 
  3321 ;;  multiplicand    1    0[COMMON] unsigned char 
  3322 ;; Auto vars:     Size  Location     Type
  3323 ;;  multiplier      1    8[COMMON] unsigned char 
  3324 ;;  word_mpld       2    6[COMMON] unsigned int 
  3325 ;;  product         2    4[COMMON] unsigned int 
  3326 ;; Return value:  Size  Location     Type
  3327 ;;                  2    0[COMMON] unsigned int 
  3328 ;; Registers used:
  3329 ;;		wreg, status,2, status,0
  3330 ;; Tracked objects:
  3331 ;;		On entry : 0/0
  3332 ;;		On exit  : 0/0
  3333 ;;		Unchanged: 0/0
  3334 ;; Data sizes:     COMMON   BANK0   BANK1   BANK2   BANK3   BANK4
  3335 ;;      Params:         2       0       0       0       0       0
  3336 ;;      Locals:         5       0       0       0       0       0
  3337 ;;      Temps:          2       0       0       0       0       0
  3338 ;;      Totals:         9       0       0       0       0       0
  3339 ;;Total ram usage:        9 bytes
  3340 ;; Hardware stack levels used: 1
  3341 ;; Hardware stack levels required when called: 3
  3342 ;; This function calls:
  3343 ;;		Nothing
  3344 ;; This function is called by:
  3345 ;;		___flmul
  3346 ;; This function uses a non-reentrant model
  3347 ;;
  3348                           
  3349  06E5                     __Umul8_16:	
  3350                           ;psect for function __Umul8_16
  3351                           
  3352                           
  3353                           ;incstack = 0
  3354                           ; Regs used in __Umul8_16: [wreg+status,2+status,0]
  3355                           ;__Umul8_16@multiplier stored from wreg
  3356  06E5  00F8               	movwf	__Umul8_16@multiplier
  3357  06E6                     l1599:
  3358  06E6  01F4               	clrf	__Umul8_16@product
  3359  06E7  01F5               	clrf	__Umul8_16@product+1
  3360  06E8                     l1601:
  3361  06E8  0870               	movf	__Umul8_16@multiplicand,w
  3362  06E9  00F2               	movwf	??__Umul8_16
  3363  06EA  01F3               	clrf	??__Umul8_16+1
  3364  06EB  0872               	movf	??__Umul8_16,w
  3365  06EC  00F6               	movwf	__Umul8_16@word_mpld
  3366  06ED  0873               	movf	??__Umul8_16+1,w
  3367  06EE  00F7               	movwf	__Umul8_16@word_mpld+1
  3368  06EF                     l1603:
  3369  06EF  1C78               	btfss	__Umul8_16@multiplier,0
  3370  06F0  2EF2               	goto	u921
  3371  06F1  2EF3               	goto	u920
  3372  06F2                     u921:
  3373  06F2  2EF7               	goto	l837
  3374  06F3                     u920:
  3375  06F3                     l1605:
  3376  06F3  0876               	movf	__Umul8_16@word_mpld,w
  3377  06F4  07F4               	addwf	__Umul8_16@product,f
  3378  06F5  0877               	movf	__Umul8_16@word_mpld+1,w
  3379  06F6  3DF5               	addwfc	__Umul8_16@product+1,f
  3380  06F7                     l837:
  3381  06F7  3001               	movlw	1
  3382  06F8                     u935:
  3383  06F8  35F6               	lslf	__Umul8_16@word_mpld,f
  3384  06F9  0DF7               	rlf	__Umul8_16@word_mpld+1,f
  3385  06FA  0B89               	decfsz	9,f
  3386  06FB  2EF8               	goto	u935
  3387  06FC  1003               	clrc
  3388  06FD  0CF8               	rrf	__Umul8_16@multiplier,f
  3389  06FE                     l1607:
  3390  06FE  0878               	movf	__Umul8_16@multiplier,w
  3391  06FF  1D03               	btfss	3,2
  3392  0700  2F02               	goto	u941
  3393  0701  2F03               	goto	u940
  3394  0702                     u941:
  3395  0702  2EEF               	goto	l1603
  3396  0703                     u940:
  3397  0703                     l1609:
  3398  0703  0875               	movf	__Umul8_16@product+1,w
  3399  0704  00F1               	movwf	?__Umul8_16+1
  3400  0705  0874               	movf	__Umul8_16@product,w
  3401  0706  00F0               	movwf	?__Umul8_16
  3402  0707                     l839:
  3403  0707  0008               	return
  3404  0708                     __end_of__Umul8_16:
  3405                           
  3406                           	psect	text7
  3407  027B                     __ptext7:	
  3408 ;; *************** function ___fldiv *****************
  3409 ;; Defined at:
  3410 ;;		line 8 in file "C:\Program Files\Microchip\xc8\v2.36\pic\sources\c99\common\sprcdiv.c"
  3411 ;; Parameters:    Size  Location     Type
  3412 ;;  a               4   26[BANK0 ] unsigned int 
  3413 ;;  b               4   30[BANK0 ] unsigned int 
  3414 ;; Auto vars:     Size  Location     Type
  3415 ;;  grs             4   46[BANK0 ] unsigned long 
  3416 ;;  rem             4   39[BANK0 ] unsigned long 
  3417 ;;  new_exp         2   44[BANK0 ] int 
  3418 ;;  aexp            1   51[BANK0 ] unsigned char 
  3419 ;;  bexp            1   50[BANK0 ] unsigned char 
  3420 ;;  sign            1   43[BANK0 ] unsigned char 
  3421 ;; Return value:  Size  Location     Type
  3422 ;;                  4   26[BANK0 ] unsigned char 
  3423 ;; Registers used:
  3424 ;;		wreg, status,2, status,0
  3425 ;; Tracked objects:
  3426 ;;		On entry : 0/0
  3427 ;;		On exit  : 0/0
  3428 ;;		Unchanged: 0/0
  3429 ;; Data sizes:     COMMON   BANK0   BANK1   BANK2   BANK3   BANK4
  3430 ;;      Params:         0       8       0       0       0       0
  3431 ;;      Locals:         0      13       0       0       0       0
  3432 ;;      Temps:          0       5       0       0       0       0
  3433 ;;      Totals:         0      26       0       0       0       0
  3434 ;;Total ram usage:       26 bytes
  3435 ;; Hardware stack levels used: 1
  3436 ;; Hardware stack levels required when called: 3
  3437 ;; This function calls:
  3438 ;;		Nothing
  3439 ;; This function is called by:
  3440 ;;		_read_battery_voltage
  3441 ;; This function uses a non-reentrant model
  3442 ;;
  3443                           
  3444  027B                     ___fldiv:	
  3445                           ;psect for function ___fldiv
  3446                           
  3447  027B                     l1633:	
  3448                           ;incstack = 0
  3449                           ; Regs used in ___fldiv: [wreg+status,2+status,0]
  3450                           
  3451  027B  0020               	movlb	0	; select bank0
  3452  027C  0841               	movf	___fldiv@b+3,w
  3453  027D  3980               	andlw	128
  3454  027E  00C2               	movwf	??___fldiv
  3455  027F  0842               	movf	??___fldiv,w
  3456  0280  00CB               	movwf	___fldiv@sign
  3457  0281                     l1635:
  3458  0281  3541               	lslf	___fldiv@b+3,w
  3459  0282  00C2               	movwf	??___fldiv
  3460  0283  0842               	movf	??___fldiv,w
  3461  0284  00D2               	movwf	___fldiv@bexp
  3462  0285                     l1637:
  3463  0285  1FC0               	btfss	___fldiv@b+2,7
  3464  0286  2A88               	goto	u951
  3465  0287  2A89               	goto	u950
  3466  0288                     u951:
  3467  0288  2A8A               	goto	l1641
  3468  0289                     u950:
  3469  0289                     l1639:
  3470  0289  1452               	bsf	___fldiv@bexp,0
  3471  028A                     l1641:
  3472  028A  0852               	movf	___fldiv@bexp,w
  3473  028B  1903               	btfsc	3,2
  3474  028C  2A8E               	goto	u961
  3475  028D  2A8F               	goto	u960
  3476  028E                     u961:
  3477  028E  2A9F               	goto	l1651
  3478  028F                     u960:
  3479  028F                     l1643:
  3480  028F  0A52               	incf	___fldiv@bexp,w
  3481  0290  1D03               	btfss	3,2
  3482  0291  2A93               	goto	u971
  3483  0292  2A94               	goto	u970
  3484  0293                     u971:
  3485  0293  2A9C               	goto	l1647
  3486  0294                     u970:
  3487  0294                     l1645:
  3488  0294  3000               	movlw	0
  3489  0295  00C1               	movwf	___fldiv@b+3
  3490  0296  3000               	movlw	0
  3491  0297  00C0               	movwf	___fldiv@b+2
  3492  0298  3000               	movlw	0
  3493  0299  00BF               	movwf	___fldiv@b+1
  3494  029A  3000               	movlw	0
  3495  029B  00BE               	movwf	___fldiv@b
  3496  029C                     l1647:
  3497  029C  17C0               	bsf	___fldiv@b+2,7
  3498  029D                     l1649:
  3499  029D  01C1               	clrf	___fldiv@b+3
  3500  029E  2AA7               	goto	l1653
  3501  029F                     l1651:
  3502  029F  3000               	movlw	0
  3503  02A0  00C1               	movwf	___fldiv@b+3
  3504  02A1  3000               	movlw	0
  3505  02A2  00C0               	movwf	___fldiv@b+2
  3506  02A3  3000               	movlw	0
  3507  02A4  00BF               	movwf	___fldiv@b+1
  3508  02A5  3000               	movlw	0
  3509  02A6  00BE               	movwf	___fldiv@b
  3510  02A7                     l1653:
  3511  02A7  083D               	movf	___fldiv@a+3,w
  3512  02A8  3980               	andlw	128
  3513  02A9  00C2               	movwf	??___fldiv
  3514  02AA  0842               	movf	??___fldiv,w
  3515  02AB  06CB               	xorwf	___fldiv@sign,f
  3516  02AC                     l1655:
  3517  02AC  353D               	lslf	___fldiv@a+3,w
  3518  02AD  00C2               	movwf	??___fldiv
  3519  02AE  0842               	movf	??___fldiv,w
  3520  02AF  00D3               	movwf	___fldiv@aexp
  3521  02B0                     l1657:
  3522  02B0  1FBC               	btfss	___fldiv@a+2,7
  3523  02B1  2AB3               	goto	u981
  3524  02B2  2AB4               	goto	u980
  3525  02B3                     u981:
  3526  02B3  2AB5               	goto	l1661
  3527  02B4                     u980:
  3528  02B4                     l1659:
  3529  02B4  1453               	bsf	___fldiv@aexp,0
  3530  02B5                     l1661:
  3531  02B5  0853               	movf	___fldiv@aexp,w
  3532  02B6  1903               	btfsc	3,2
  3533  02B7  2AB9               	goto	u991
  3534  02B8  2ABA               	goto	u990
  3535  02B9                     u991:
  3536  02B9  2ACA               	goto	l1671
  3537  02BA                     u990:
  3538  02BA                     l1663:
  3539  02BA  0A53               	incf	___fldiv@aexp,w
  3540  02BB  1D03               	btfss	3,2
  3541  02BC  2ABE               	goto	u1001
  3542  02BD  2ABF               	goto	u1000
  3543  02BE                     u1001:
  3544  02BE  2AC7               	goto	l1667
  3545  02BF                     u1000:
  3546  02BF                     l1665:
  3547  02BF  3000               	movlw	0
  3548  02C0  00BD               	movwf	___fldiv@a+3
  3549  02C1  3000               	movlw	0
  3550  02C2  00BC               	movwf	___fldiv@a+2
  3551  02C3  3000               	movlw	0
  3552  02C4  00BB               	movwf	___fldiv@a+1
  3553  02C5  3000               	movlw	0
  3554  02C6  00BA               	movwf	___fldiv@a
  3555  02C7                     l1667:
  3556  02C7  17BC               	bsf	___fldiv@a+2,7
  3557  02C8                     l1669:
  3558  02C8  01BD               	clrf	___fldiv@a+3
  3559  02C9  2AD2               	goto	l778
  3560  02CA                     l1671:
  3561  02CA  3000               	movlw	0
  3562  02CB  00BD               	movwf	___fldiv@a+3
  3563  02CC  3000               	movlw	0
  3564  02CD  00BC               	movwf	___fldiv@a+2
  3565  02CE  3000               	movlw	0
  3566  02CF  00BB               	movwf	___fldiv@a+1
  3567  02D0  3000               	movlw	0
  3568  02D1  00BA               	movwf	___fldiv@a
  3569  02D2                     l778:
  3570  02D2  083D               	movf	___fldiv@a+3,w
  3571  02D3  043C               	iorwf	___fldiv@a+2,w
  3572  02D4  043B               	iorwf	___fldiv@a+1,w
  3573  02D5  043A               	iorwf	___fldiv@a,w
  3574  02D6  1D03               	skipz
  3575  02D7  2AD9               	goto	u1011
  3576  02D8  2ADA               	goto	u1010
  3577  02D9                     u1011:
  3578  02D9  2AF3               	goto	l1681
  3579  02DA                     u1010:
  3580  02DA                     l1673:
  3581  02DA  3000               	movlw	0
  3582  02DB  00C1               	movwf	___fldiv@b+3
  3583  02DC  3000               	movlw	0
  3584  02DD  00C0               	movwf	___fldiv@b+2
  3585  02DE  3000               	movlw	0
  3586  02DF  00BF               	movwf	___fldiv@b+1
  3587  02E0  3000               	movlw	0
  3588  02E1  00BE               	movwf	___fldiv@b
  3589  02E2  3080               	movlw	128
  3590  02E3  04C0               	iorwf	___fldiv@b+2,f
  3591  02E4  307F               	movlw	127
  3592  02E5  04C1               	iorwf	___fldiv@b+3,f
  3593  02E6                     l1675:
  3594  02E6  084B               	movf	___fldiv@sign,w
  3595  02E7  00C2               	movwf	??___fldiv
  3596  02E8  0842               	movf	??___fldiv,w
  3597  02E9  04C1               	iorwf	___fldiv@b+3,f
  3598  02EA                     l1677:
  3599  02EA  0841               	movf	___fldiv@b+3,w
  3600  02EB  00BD               	movwf	?___fldiv+3
  3601  02EC  0840               	movf	___fldiv@b+2,w
  3602  02ED  00BC               	movwf	?___fldiv+2
  3603  02EE  083F               	movf	___fldiv@b+1,w
  3604  02EF  00BB               	movwf	?___fldiv+1
  3605  02F0  083E               	movf	___fldiv@b,w
  3606  02F1  00BA               	movwf	?___fldiv
  3607  02F2  2C2E               	goto	l780
  3608  02F3                     l1681:
  3609  02F3  0852               	movf	___fldiv@bexp,w
  3610  02F4  1D03               	btfss	3,2
  3611  02F5  2AF7               	goto	u1021
  3612  02F6  2AF8               	goto	u1020
  3613  02F7                     u1021:
  3614  02F7  2B01               	goto	l1687
  3615  02F8                     u1020:
  3616  02F8                     l1683:
  3617  02F8  3000               	movlw	0
  3618  02F9  00BD               	movwf	?___fldiv+3
  3619  02FA  3000               	movlw	0
  3620  02FB  00BC               	movwf	?___fldiv+2
  3621  02FC  3000               	movlw	0
  3622  02FD  00BB               	movwf	?___fldiv+1
  3623  02FE  3000               	movlw	0
  3624  02FF  00BA               	movwf	?___fldiv
  3625  0300  2C2E               	goto	l780
  3626  0301                     l1687:
  3627  0301  0852               	movf	___fldiv@bexp,w
  3628  0302  00C2               	movwf	??___fldiv
  3629  0303  01C3               	clrf	??___fldiv+1
  3630  0304  0843               	movf	??___fldiv+1,w
  3631  0305  00C5               	movwf	??___fldiv+3
  3632  0306  0853               	movf	___fldiv@aexp,w
  3633  0307  0242               	subwf	??___fldiv,w
  3634  0308  00C4               	movwf	??___fldiv+2
  3635  0309  1C03               	skipc
  3636  030A  03C5               	decf	??___fldiv+3,f
  3637  030B  0844               	movf	??___fldiv+2,w
  3638  030C  3E7F               	addlw	127
  3639  030D  00CC               	movwf	___fldiv@new_exp
  3640  030E  3000               	movlw	0
  3641  030F  3D45               	addwfc	??___fldiv+3,w
  3642  0310  00CD               	movwf	___fldiv@new_exp+1
  3643  0311                     l1689:
  3644  0311  0841               	movf	___fldiv@b+3,w
  3645  0312  00CA               	movwf	___fldiv@rem+3
  3646  0313  0840               	movf	___fldiv@b+2,w
  3647  0314  00C9               	movwf	___fldiv@rem+2
  3648  0315  083F               	movf	___fldiv@b+1,w
  3649  0316  00C8               	movwf	___fldiv@rem+1
  3650  0317  083E               	movf	___fldiv@b,w
  3651  0318  00C7               	movwf	___fldiv@rem
  3652  0319                     l1691:
  3653  0319  3000               	movlw	0
  3654  031A  00C1               	movwf	___fldiv@b+3
  3655  031B  3000               	movlw	0
  3656  031C  00C0               	movwf	___fldiv@b+2
  3657  031D  3000               	movlw	0
  3658  031E  00BF               	movwf	___fldiv@b+1
  3659  031F  3000               	movlw	0
  3660  0320  00BE               	movwf	___fldiv@b
  3661  0321                     l1693:
  3662  0321  3000               	movlw	0
  3663  0322  00D1               	movwf	___fldiv@grs+3
  3664  0323  3000               	movlw	0
  3665  0324  00D0               	movwf	___fldiv@grs+2
  3666  0325  3000               	movlw	0
  3667  0326  00CF               	movwf	___fldiv@grs+1
  3668  0327  3000               	movlw	0
  3669  0328  00CE               	movwf	___fldiv@grs
  3670  0329                     l1695:
  3671  0329  01D3               	clrf	___fldiv@aexp
  3672  032A  2B69               	goto	l1715
  3673  032B                     l1697:
  3674  032B  0853               	movf	___fldiv@aexp,w
  3675  032C  1903               	btfsc	3,2
  3676  032D  2B2F               	goto	u1031
  3677  032E  2B30               	goto	u1030
  3678  032F                     u1031:
  3679  032F  2B4A               	goto	l1707
  3680  0330                     u1030:
  3681  0330                     l1699:
  3682  0330  3001               	movlw	1
  3683  0331                     u1045:
  3684  0331  35C7               	lslf	___fldiv@rem,f
  3685  0332  0DC8               	rlf	___fldiv@rem+1,f
  3686  0333  0DC9               	rlf	___fldiv@rem+2,f
  3687  0334  0DCA               	rlf	___fldiv@rem+3,f
  3688  0335  0B89               	decfsz	9,f
  3689  0336  2B31               	goto	u1045
  3690  0337  3001               	movlw	1
  3691  0338                     u1055:
  3692  0338  35BE               	lslf	___fldiv@b,f
  3693  0339  0DBF               	rlf	___fldiv@b+1,f
  3694  033A  0DC0               	rlf	___fldiv@b+2,f
  3695  033B  0DC1               	rlf	___fldiv@b+3,f
  3696  033C  0B89               	decfsz	9,f
  3697  033D  2B38               	goto	u1055
  3698  033E                     l1701:
  3699  033E  1FD1               	btfss	___fldiv@grs+3,7
  3700  033F  2B41               	goto	u1061
  3701  0340  2B42               	goto	u1060
  3702  0341                     u1061:
  3703  0341  2B43               	goto	l1705
  3704  0342                     u1060:
  3705  0342                     l1703:
  3706  0342  143E               	bsf	___fldiv@b,0
  3707  0343                     l1705:
  3708  0343  3001               	movlw	1
  3709  0344                     u1075:
  3710  0344  35CE               	lslf	___fldiv@grs,f
  3711  0345  0DCF               	rlf	___fldiv@grs+1,f
  3712  0346  0DD0               	rlf	___fldiv@grs+2,f
  3713  0347  0DD1               	rlf	___fldiv@grs+3,f
  3714  0348  0B89               	decfsz	9,f
  3715  0349  2B44               	goto	u1075
  3716  034A                     l1707:
  3717  034A  083D               	movf	___fldiv@a+3,w
  3718  034B  024A               	subwf	___fldiv@rem+3,w
  3719  034C  1D03               	skipz
  3720  034D  2B58               	goto	u1085
  3721  034E  083C               	movf	___fldiv@a+2,w
  3722  034F  0249               	subwf	___fldiv@rem+2,w
  3723  0350  1D03               	skipz
  3724  0351  2B58               	goto	u1085
  3725  0352  083B               	movf	___fldiv@a+1,w
  3726  0353  0248               	subwf	___fldiv@rem+1,w
  3727  0354  1D03               	skipz
  3728  0355  2B58               	goto	u1085
  3729  0356  083A               	movf	___fldiv@a,w
  3730  0357  0247               	subwf	___fldiv@rem,w
  3731  0358                     u1085:
  3732  0358  1C03               	skipc
  3733  0359  2B5B               	goto	u1081
  3734  035A  2B5C               	goto	u1080
  3735  035B                     u1081:
  3736  035B  2B65               	goto	l1713
  3737  035C                     u1080:
  3738  035C                     l1709:
  3739  035C  1751               	bsf	___fldiv@grs+3,6
  3740  035D                     l1711:
  3741  035D  083A               	movf	___fldiv@a,w
  3742  035E  02C7               	subwf	___fldiv@rem,f
  3743  035F  083B               	movf	___fldiv@a+1,w
  3744  0360  3BC8               	subwfb	___fldiv@rem+1,f
  3745  0361  083C               	movf	___fldiv@a+2,w
  3746  0362  3BC9               	subwfb	___fldiv@rem+2,f
  3747  0363  083D               	movf	___fldiv@a+3,w
  3748  0364  3BCA               	subwfb	___fldiv@rem+3,f
  3749  0365                     l1713:
  3750  0365  3001               	movlw	1
  3751  0366  00C2               	movwf	??___fldiv
  3752  0367  0842               	movf	??___fldiv,w
  3753  0368  07D3               	addwf	___fldiv@aexp,f
  3754  0369                     l1715:
  3755  0369  301A               	movlw	26
  3756  036A  0253               	subwf	___fldiv@aexp,w
  3757  036B  1C03               	skipc
  3758  036C  2B6E               	goto	u1091
  3759  036D  2B6F               	goto	u1090
  3760  036E                     u1091:
  3761  036E  2B2B               	goto	l1697
  3762  036F                     u1090:
  3763  036F                     l1717:
  3764  036F  084A               	movf	___fldiv@rem+3,w
  3765  0370  0449               	iorwf	___fldiv@rem+2,w
  3766  0371  0448               	iorwf	___fldiv@rem+1,w
  3767  0372  0447               	iorwf	___fldiv@rem,w
  3768  0373  1903               	skipnz
  3769  0374  2B76               	goto	u1101
  3770  0375  2B77               	goto	u1100
  3771  0376                     u1101:
  3772  0376  2B90               	goto	l1731
  3773  0377                     u1100:
  3774  0377                     l1719:
  3775  0377  144E               	bsf	___fldiv@grs,0
  3776  0378  2B90               	goto	l1731
  3777  0379                     l1721:
  3778  0379  3001               	movlw	1
  3779  037A                     u1115:
  3780  037A  35BE               	lslf	___fldiv@b,f
  3781  037B  0DBF               	rlf	___fldiv@b+1,f
  3782  037C  0DC0               	rlf	___fldiv@b+2,f
  3783  037D  0DC1               	rlf	___fldiv@b+3,f
  3784  037E  0B89               	decfsz	9,f
  3785  037F  2B7A               	goto	u1115
  3786  0380                     l1723:
  3787  0380  1FD1               	btfss	___fldiv@grs+3,7
  3788  0381  2B83               	goto	u1121
  3789  0382  2B84               	goto	u1120
  3790  0383                     u1121:
  3791  0383  2B85               	goto	l1727
  3792  0384                     u1120:
  3793  0384                     l1725:
  3794  0384  143E               	bsf	___fldiv@b,0
  3795  0385                     l1727:
  3796  0385  3001               	movlw	1
  3797  0386                     u1135:
  3798  0386  35CE               	lslf	___fldiv@grs,f
  3799  0387  0DCF               	rlf	___fldiv@grs+1,f
  3800  0388  0DD0               	rlf	___fldiv@grs+2,f
  3801  0389  0DD1               	rlf	___fldiv@grs+3,f
  3802  038A  0B89               	decfsz	9,f
  3803  038B  2B86               	goto	u1135
  3804  038C                     l1729:
  3805  038C  30FF               	movlw	255
  3806  038D  07CC               	addwf	___fldiv@new_exp,f
  3807  038E  30FF               	movlw	255
  3808  038F  3DCD               	addwfc	___fldiv@new_exp+1,f
  3809  0390                     l1731:
  3810  0390  1FC0               	btfss	___fldiv@b+2,7
  3811  0391  2B93               	goto	u1141
  3812  0392  2B94               	goto	u1140
  3813  0393                     u1141:
  3814  0393  2B79               	goto	l1721
  3815  0394                     u1140:
  3816  0394                     l1733:
  3817  0394  01D3               	clrf	___fldiv@aexp
  3818  0395                     l1735:
  3819  0395  1FD1               	btfss	___fldiv@grs+3,7
  3820  0396  2B98               	goto	u1151
  3821  0397  2B99               	goto	u1150
  3822  0398                     u1151:
  3823  0398  2BB5               	goto	l1743
  3824  0399                     u1150:
  3825  0399                     l1737:
  3826  0399  30FF               	movlw	255
  3827  039A  054E               	andwf	___fldiv@grs,w
  3828  039B  00C2               	movwf	??___fldiv
  3829  039C  30FF               	movlw	255
  3830  039D  054F               	andwf	___fldiv@grs+1,w
  3831  039E  00C3               	movwf	??___fldiv+1
  3832  039F  30FF               	movlw	255
  3833  03A0  0550               	andwf	___fldiv@grs+2,w
  3834  03A1  00C4               	movwf	??___fldiv+2
  3835  03A2  307F               	movlw	127
  3836  03A3  0551               	andwf	___fldiv@grs+3,w
  3837  03A4  00C5               	movwf	??___fldiv+3
  3838  03A5  0845               	movf	??___fldiv+3,w
  3839  03A6  0444               	iorwf	??___fldiv+2,w
  3840  03A7  0443               	iorwf	??___fldiv+1,w
  3841  03A8  0442               	iorwf	??___fldiv,w
  3842  03A9  1903               	skipnz
  3843  03AA  2BAC               	goto	u1161
  3844  03AB  2BAD               	goto	u1160
  3845  03AC                     u1161:
  3846  03AC  2BB0               	goto	l794
  3847  03AD                     u1160:
  3848  03AD                     l1739:
  3849  03AD  01D3               	clrf	___fldiv@aexp
  3850  03AE  0AD3               	incf	___fldiv@aexp,f
  3851  03AF  2BB5               	goto	l1743
  3852  03B0                     l794:
  3853  03B0  1C3E               	btfss	___fldiv@b,0
  3854  03B1  2BB3               	goto	u1171
  3855  03B2  2BB4               	goto	u1170
  3856  03B3                     u1171:
  3857  03B3  2BB5               	goto	l1743
  3858  03B4                     u1170:
  3859  03B4  2BAD               	goto	l1739
  3860  03B5                     l1743:
  3861  03B5  0853               	movf	___fldiv@aexp,w
  3862  03B6  1903               	btfsc	3,2
  3863  03B7  2BB9               	goto	u1181
  3864  03B8  2BBA               	goto	u1180
  3865  03B9                     u1181:
  3866  03B9  2BE2               	goto	l1753
  3867  03BA                     u1180:
  3868  03BA                     l1745:
  3869  03BA  3001               	movlw	1
  3870  03BB  07BE               	addwf	___fldiv@b,f
  3871  03BC  3000               	movlw	0
  3872  03BD  3DBF               	addwfc	___fldiv@b+1,f
  3873  03BE  3000               	movlw	0
  3874  03BF  3DC0               	addwfc	___fldiv@b+2,f
  3875  03C0  3000               	movlw	0
  3876  03C1  3DC1               	addwfc	___fldiv@b+3,f
  3877  03C2                     l1747:
  3878  03C2  1C41               	btfss	___fldiv@b+3,0
  3879  03C3  2BC5               	goto	u1191
  3880  03C4  2BC6               	goto	u1190
  3881  03C5                     u1191:
  3882  03C5  2BE2               	goto	l1753
  3883  03C6                     u1190:
  3884  03C6                     l1749:
  3885  03C6  083E               	movf	___fldiv@b,w
  3886  03C7  00C2               	movwf	??___fldiv
  3887  03C8  083F               	movf	___fldiv@b+1,w
  3888  03C9  00C3               	movwf	??___fldiv+1
  3889  03CA  0840               	movf	___fldiv@b+2,w
  3890  03CB  00C4               	movwf	??___fldiv+2
  3891  03CC  0841               	movf	___fldiv@b+3,w
  3892  03CD  00C5               	movwf	??___fldiv+3
  3893  03CE  3001               	movlw	1
  3894  03CF  00C6               	movwf	??___fldiv+4
  3895  03D0                     u1205:
  3896  03D0  37C5               	asrf	??___fldiv+3,f
  3897  03D1  0CC4               	rrf	??___fldiv+2,f
  3898  03D2  0CC3               	rrf	??___fldiv+1,f
  3899  03D3  0CC2               	rrf	??___fldiv,f
  3900  03D4                     u1200:
  3901  03D4  0BC6               	decfsz	??___fldiv+4,f
  3902  03D5  2BD0               	goto	u1205
  3903  03D6  0845               	movf	??___fldiv+3,w
  3904  03D7  00C1               	movwf	___fldiv@b+3
  3905  03D8  0844               	movf	??___fldiv+2,w
  3906  03D9  00C0               	movwf	___fldiv@b+2
  3907  03DA  0843               	movf	??___fldiv+1,w
  3908  03DB  00BF               	movwf	___fldiv@b+1
  3909  03DC  0842               	movf	??___fldiv,w
  3910  03DD  00BE               	movwf	___fldiv@b
  3911  03DE                     l1751:
  3912  03DE  3001               	movlw	1
  3913  03DF  07CC               	addwf	___fldiv@new_exp,f
  3914  03E0  3000               	movlw	0
  3915  03E1  3DCD               	addwfc	___fldiv@new_exp+1,f
  3916  03E2                     l1753:
  3917  03E2  084D               	movf	___fldiv@new_exp+1,w
  3918  03E3  3A80               	xorlw	128
  3919  03E4  00C2               	movwf	??___fldiv
  3920  03E5  3080               	movlw	128
  3921  03E6  0242               	subwf	??___fldiv,w
  3922  03E7  1D03               	skipz
  3923  03E8  2BEB               	goto	u1215
  3924  03E9  30FF               	movlw	255
  3925  03EA  024C               	subwf	___fldiv@new_exp,w
  3926  03EB                     u1215:
  3927  03EB  1C03               	skipc
  3928  03EC  2BEE               	goto	u1211
  3929  03ED  2BEF               	goto	u1210
  3930  03EE                     u1211:
  3931  03EE  2BFC               	goto	l799
  3932  03EF                     u1210:
  3933  03EF                     l1755:
  3934  03EF  30FF               	movlw	255
  3935  03F0  0020               	movlb	0	; select bank0
  3936  03F1  00CC               	movwf	___fldiv@new_exp
  3937  03F2  3000               	movlw	0
  3938  03F3  00CD               	movwf	___fldiv@new_exp+1
  3939  03F4  3000               	movlw	0
  3940  03F5  00C1               	movwf	___fldiv@b+3
  3941  03F6  3000               	movlw	0
  3942  03F7  00C0               	movwf	___fldiv@b+2
  3943  03F8  3000               	movlw	0
  3944  03F9  00BF               	movwf	___fldiv@b+1
  3945  03FA  3000               	movlw	0
  3946  03FB  00BE               	movwf	___fldiv@b
  3947  03FC                     l799:
  3948  03FC  0020               	movlb	0	; select bank0
  3949  03FD  084D               	movf	___fldiv@new_exp+1,w
  3950  03FE  3A80               	xorlw	128
  3951  03FF  00C2               	movwf	??___fldiv
  3952  0400  3080               	movlw	128
  3953  0401  0242               	subwf	??___fldiv,w
  3954  0402  1D03               	skipz
  3955  0403  2C06               	goto	u1225
  3956  0404  3001               	movlw	1
  3957  0405  024C               	subwf	___fldiv@new_exp,w
  3958  0406                     u1225:
  3959  0406  1803               	skipnc
  3960  0407  2C09               	goto	u1221
  3961  0408  2C0A               	goto	u1220
  3962  0409                     u1221:
  3963  0409  2C16               	goto	l800
  3964  040A                     u1220:
  3965  040A                     l1757:
  3966  040A  0020               	movlb	0	; select bank0
  3967  040B  01CC               	clrf	___fldiv@new_exp
  3968  040C  01CD               	clrf	___fldiv@new_exp+1
  3969  040D                     l1759:
  3970  040D  3000               	movlw	0
  3971  040E  00C1               	movwf	___fldiv@b+3
  3972  040F  3000               	movlw	0
  3973  0410  00C0               	movwf	___fldiv@b+2
  3974  0411  3000               	movlw	0
  3975  0412  00BF               	movwf	___fldiv@b+1
  3976  0413  3000               	movlw	0
  3977  0414  00BE               	movwf	___fldiv@b
  3978  0415                     l1761:
  3979  0415  01CB               	clrf	___fldiv@sign
  3980  0416                     l800:
  3981  0416  0020               	movlb	0	; select bank0
  3982  0417  084C               	movf	___fldiv@new_exp,w
  3983  0418  00C2               	movwf	??___fldiv
  3984  0419  0842               	movf	??___fldiv,w
  3985  041A  00D2               	movwf	___fldiv@bexp
  3986  041B                     l1763:
  3987  041B  1C52               	btfss	___fldiv@bexp,0
  3988  041C  2C1E               	goto	u1231
  3989  041D  2C1F               	goto	u1230
  3990  041E                     u1231:
  3991  041E  2C21               	goto	l1767
  3992  041F                     u1230:
  3993  041F                     l1765:
  3994  041F  17C0               	bsf	___fldiv@b+2,7
  3995  0420  2C25               	goto	l802
  3996  0421                     l1767:
  3997  0421  307F               	movlw	127
  3998  0422  00C2               	movwf	??___fldiv
  3999  0423  0842               	movf	??___fldiv,w
  4000  0424  05C0               	andwf	___fldiv@b+2,f
  4001  0425                     l802:
  4002  0425  3652               	lsrf	___fldiv@bexp,w
  4003  0426  00C2               	movwf	??___fldiv
  4004  0427  0842               	movf	??___fldiv,w
  4005  0428  00C1               	movwf	___fldiv@b+3
  4006  0429  084B               	movf	___fldiv@sign,w
  4007  042A  00C2               	movwf	??___fldiv
  4008  042B  0842               	movf	??___fldiv,w
  4009  042C  04C1               	iorwf	___fldiv@b+3,f
  4010  042D  2AEA               	goto	l1677
  4011  042E                     l780:
  4012  042E  0008               	return
  4013  042F                     __end_of___fldiv:
  4014                           
  4015                           	psect	text8
  4016  07F0                     __ptext8:	
  4017 ;; *************** function _ADC_StartConversion *****************
  4018 ;; Defined at:
  4019 ;;		line 98 in file "mcc_generated_files/adc.c"
  4020 ;; Parameters:    Size  Location     Type
  4021 ;;		None
  4022 ;; Auto vars:     Size  Location     Type
  4023 ;;		None
  4024 ;; Return value:  Size  Location     Type
  4025 ;;                  1    wreg      void 
  4026 ;; Registers used:
  4027 ;;		None
  4028 ;; Tracked objects:
  4029 ;;		On entry : 0/0
  4030 ;;		On exit  : 0/0
  4031 ;;		Unchanged: 0/0
  4032 ;; Data sizes:     COMMON   BANK0   BANK1   BANK2   BANK3   BANK4
  4033 ;;      Params:         0       0       0       0       0       0
  4034 ;;      Locals:         0       0       0       0       0       0
  4035 ;;      Temps:          0       0       0       0       0       0
  4036 ;;      Totals:         0       0       0       0       0       0
  4037 ;;Total ram usage:        0 bytes
  4038 ;; Hardware stack levels used: 1
  4039 ;; Hardware stack levels required when called: 3
  4040 ;; This function calls:
  4041 ;;		Nothing
  4042 ;; This function is called by:
  4043 ;;		_read_battery_voltage
  4044 ;; This function uses a non-reentrant model
  4045 ;;
  4046                           
  4047  07F0                     _ADC_StartConversion:	
  4048                           ;psect for function _ADC_StartConversion
  4049                           
  4050  07F0                     l1627:	
  4051                           ;incstack = 0
  4052                           ; Regs used in _ADC_StartConversion: []
  4053                           
  4054                           
  4055                           ;mcc_generated_files/adc.c: 101:     ADCON0bits.GO_nDONE = 1;
  4056  07F0  0021               	movlb	1	; select bank1
  4057  07F1  149D               	bsf	29,1	;volatile
  4058  07F2                     l98:
  4059  07F2  0008               	return
  4060  07F3                     __end_of_ADC_StartConversion:
  4061                           
  4062                           	psect	text9
  4063  07B3                     __ptext9:	
  4064 ;; *************** function _ADC_SelectChannel *****************
  4065 ;; Defined at:
  4066 ;;		line 90 in file "mcc_generated_files/adc.c"
  4067 ;; Parameters:    Size  Location     Type
  4068 ;;  channel         1    wreg     enum E2485
  4069 ;; Auto vars:     Size  Location     Type
  4070 ;;  channel         1    1[COMMON] enum E2485
  4071 ;; Return value:  Size  Location     Type
  4072 ;;                  1    wreg      void 
  4073 ;; Registers used:
  4074 ;;		wreg, status,2, status,0
  4075 ;; Tracked objects:
  4076 ;;		On entry : 0/0
  4077 ;;		On exit  : 0/0
  4078 ;;		Unchanged: 0/0
  4079 ;; Data sizes:     COMMON   BANK0   BANK1   BANK2   BANK3   BANK4
  4080 ;;      Params:         0       0       0       0       0       0
  4081 ;;      Locals:         1       0       0       0       0       0
  4082 ;;      Temps:          1       0       0       0       0       0
  4083 ;;      Totals:         2       0       0       0       0       0
  4084 ;;Total ram usage:        2 bytes
  4085 ;; Hardware stack levels used: 1
  4086 ;; Hardware stack levels required when called: 3
  4087 ;; This function calls:
  4088 ;;		Nothing
  4089 ;; This function is called by:
  4090 ;;		_read_battery_voltage
  4091 ;; This function uses a non-reentrant model
  4092 ;;
  4093                           
  4094  07B3                     _ADC_SelectChannel:	
  4095                           ;psect for function _ADC_SelectChannel
  4096                           
  4097                           
  4098                           ;incstack = 0
  4099                           ; Regs used in _ADC_SelectChannel: [wreg+status,2+status,0]
  4100                           ;ADC_SelectChannel@channel stored from wreg
  4101  07B3  00F1               	movwf	ADC_SelectChannel@channel
  4102  07B4                     l1623:
  4103                           
  4104                           ;mcc_generated_files/adc.c: 90: void ADC_SelectChannel(adc_channel_t channel);mcc_genera
      +                          ted_files/adc.c: 91: {;mcc_generated_files/adc.c: 93:     ADCON0bits.CHS = channel;
  4105  07B4  0871               	movf	ADC_SelectChannel@channel,w
  4106  07B5  00F0               	movwf	??_ADC_SelectChannel
  4107  07B6  0DF0               	rlf	??_ADC_SelectChannel,f
  4108  07B7  0DF0               	rlf	??_ADC_SelectChannel,f
  4109  07B8  0021               	movlb	1	; select bank1
  4110  07B9  081D               	movf	29,w	;volatile
  4111  07BA  0670               	xorwf	??_ADC_SelectChannel,w
  4112  07BB  3983               	andlw	-125
  4113  07BC  0670               	xorwf	??_ADC_SelectChannel,w
  4114  07BD  009D               	movwf	29	;volatile
  4115  07BE                     l1625:
  4116                           
  4117                           ;mcc_generated_files/adc.c: 95:     ADCON0bits.ADON = 1;
  4118  07BE  141D               	bsf	29,0	;volatile
  4119  07BF                     l95:
  4120  07BF  0008               	return
  4121  07C0                     __end_of_ADC_SelectChannel:
  4122                           
  4123                           	psect	text10
  4124  07DC                     __ptext10:	
  4125 ;; *************** function _ADC_GetConversionResult *****************
  4126 ;; Defined at:
  4127 ;;		line 111 in file "mcc_generated_files/adc.c"
  4128 ;; Parameters:    Size  Location     Type
  4129 ;;		None
  4130 ;; Auto vars:     Size  Location     Type
  4131 ;;		None
  4132 ;; Return value:  Size  Location     Type
  4133 ;;                  2    0[COMMON] unsigned short 
  4134 ;; Registers used:
  4135 ;;		wreg
  4136 ;; Tracked objects:
  4137 ;;		On entry : 0/0
  4138 ;;		On exit  : 0/0
  4139 ;;		Unchanged: 0/0
  4140 ;; Data sizes:     COMMON   BANK0   BANK1   BANK2   BANK3   BANK4
  4141 ;;      Params:         2       0       0       0       0       0
  4142 ;;      Locals:         0       0       0       0       0       0
  4143 ;;      Temps:          0       0       0       0       0       0
  4144 ;;      Totals:         2       0       0       0       0       0
  4145 ;;Total ram usage:        2 bytes
  4146 ;; Hardware stack levels used: 1
  4147 ;; Hardware stack levels required when called: 3
  4148 ;; This function calls:
  4149 ;;		Nothing
  4150 ;; This function is called by:
  4151 ;;		_read_battery_voltage
  4152 ;; This function uses a non-reentrant model
  4153 ;;
  4154                           
  4155  07DC                     _ADC_GetConversionResult:	
  4156                           ;psect for function _ADC_GetConversionResult
  4157                           
  4158  07DC                     l1629:	
  4159                           ;incstack = 0
  4160                           ; Regs used in _ADC_GetConversionResult: [wreg]
  4161                           
  4162                           
  4163                           ;mcc_generated_files/adc.c: 114:     return ((adc_result_t)((ADRESH << 8) + ADRESL));
  4164  07DC  0021               	movlb	1	; select bank1
  4165  07DD  081C               	movf	28,w	;volatile
  4166  07DE  00F1               	movwf	?_ADC_GetConversionResult+1
  4167  07DF  081B               	movf	27,w	;volatile
  4168  07E0  00F0               	movwf	?_ADC_GetConversionResult
  4169  07E1                     l104:
  4170  07E1  0008               	return
  4171  07E2                     __end_of_ADC_GetConversionResult:
  4172                           
  4173                           	psect	text11
  4174  0589                     __ptext11:	
  4175 ;; *************** function ___flge *****************
  4176 ;; Defined at:
  4177 ;;		line 4 in file "C:\Program Files\Microchip\xc8\v2.36\pic\sources\c99\common\flge.c"
  4178 ;; Parameters:    Size  Location     Type
  4179 ;;  ff1             4   58[BANK0 ] unsigned short 
  4180 ;;  ff2             4   62[BANK0 ] unsigned short 
  4181 ;; Auto vars:     Size  Location     Type
  4182 ;;		None
  4183 ;; Return value:  Size  Location     Type
  4184 ;;		None               void
  4185 ;; Registers used:
  4186 ;;		wreg, status,2, status,0
  4187 ;; Tracked objects:
  4188 ;;		On entry : 0/0
  4189 ;;		On exit  : 0/0
  4190 ;;		Unchanged: 0/0
  4191 ;; Data sizes:     COMMON   BANK0   BANK1   BANK2   BANK3   BANK4
  4192 ;;      Params:         0       8       0       0       0       0
  4193 ;;      Locals:         0       0       0       0       0       0
  4194 ;;      Temps:          0       4       0       0       0       0
  4195 ;;      Totals:         0      12       0       0       0       0
  4196 ;;Total ram usage:       12 bytes
  4197 ;; Hardware stack levels used: 1
  4198 ;; Hardware stack levels required when called: 3
  4199 ;; This function calls:
  4200 ;;		Nothing
  4201 ;; This function is called by:
  4202 ;;		_get_event
  4203 ;; This function uses a non-reentrant model
  4204 ;;
  4205                           
  4206  0589                     ___flge:	
  4207                           ;psect for function ___flge
  4208                           
  4209  0589                     l2003:	
  4210                           ;incstack = 0
  4211                           ; Regs used in ___flge: [wreg+status,2+status,0]
  4212                           
  4213  0589  3000               	movlw	0
  4214  058A  0020               	movlb	0	; select bank0
  4215  058B  055A               	andwf	___flge@ff1,w
  4216  058C  00E2               	movwf	??___flge
  4217  058D  3000               	movlw	0
  4218  058E  055B               	andwf	___flge@ff1+1,w
  4219  058F  00E3               	movwf	??___flge+1
  4220  0590  3080               	movlw	128
  4221  0591  055C               	andwf	___flge@ff1+2,w
  4222  0592  00E4               	movwf	??___flge+2
  4223  0593  307F               	movlw	127
  4224  0594  055D               	andwf	___flge@ff1+3,w
  4225  0595  00E5               	movwf	??___flge+3
  4226  0596  0865               	movf	??___flge+3,w
  4227  0597  0464               	iorwf	??___flge+2,w
  4228  0598  0463               	iorwf	??___flge+1,w
  4229  0599  0462               	iorwf	??___flge,w
  4230  059A  1D03               	skipz
  4231  059B  2D9D               	goto	u1641
  4232  059C  2D9E               	goto	u1640
  4233  059D                     u1641:
  4234  059D  2DA6               	goto	l599
  4235  059E                     u1640:
  4236  059E                     l2005:
  4237  059E  3000               	movlw	0
  4238  059F  00DD               	movwf	___flge@ff1+3
  4239  05A0  3000               	movlw	0
  4240  05A1  00DC               	movwf	___flge@ff1+2
  4241  05A2  3000               	movlw	0
  4242  05A3  00DB               	movwf	___flge@ff1+1
  4243  05A4  3000               	movlw	0
  4244  05A5  00DA               	movwf	___flge@ff1
  4245  05A6                     l599:
  4246  05A6  3000               	movlw	0
  4247  05A7  055E               	andwf	___flge@ff2,w
  4248  05A8  00E2               	movwf	??___flge
  4249  05A9  3000               	movlw	0
  4250  05AA  055F               	andwf	___flge@ff2+1,w
  4251  05AB  00E3               	movwf	??___flge+1
  4252  05AC  3080               	movlw	128
  4253  05AD  0560               	andwf	___flge@ff2+2,w
  4254  05AE  00E4               	movwf	??___flge+2
  4255  05AF  307F               	movlw	127
  4256  05B0  0561               	andwf	___flge@ff2+3,w
  4257  05B1  00E5               	movwf	??___flge+3
  4258  05B2  0865               	movf	??___flge+3,w
  4259  05B3  0464               	iorwf	??___flge+2,w
  4260  05B4  0463               	iorwf	??___flge+1,w
  4261  05B5  0462               	iorwf	??___flge,w
  4262  05B6  1D03               	skipz
  4263  05B7  2DB9               	goto	u1651
  4264  05B8  2DBA               	goto	u1650
  4265  05B9                     u1651:
  4266  05B9  2DC2               	goto	l2009
  4267  05BA                     u1650:
  4268  05BA                     l2007:
  4269  05BA  3000               	movlw	0
  4270  05BB  00E1               	movwf	___flge@ff2+3
  4271  05BC  3000               	movlw	0
  4272  05BD  00E0               	movwf	___flge@ff2+2
  4273  05BE  3000               	movlw	0
  4274  05BF  00DF               	movwf	___flge@ff2+1
  4275  05C0  3000               	movlw	0
  4276  05C1  00DE               	movwf	___flge@ff2
  4277  05C2                     l2009:
  4278  05C2  1FDD               	btfss	___flge@ff1+3,7
  4279  05C3  2DC5               	goto	u1661
  4280  05C4  2DC6               	goto	u1660
  4281  05C5                     u1661:
  4282  05C5  2DDE               	goto	l2013
  4283  05C6                     u1660:
  4284  05C6                     l2011:
  4285  05C6  3000               	movlw	0
  4286  05C7  00E2               	movwf	??___flge
  4287  05C8  3000               	movlw	0
  4288  05C9  00E3               	movwf	??___flge+1
  4289  05CA  3000               	movlw	0
  4290  05CB  00E4               	movwf	??___flge+2
  4291  05CC  3080               	movlw	128
  4292  05CD  00E5               	movwf	??___flge+3
  4293  05CE  085A               	movf	___flge@ff1,w
  4294  05CF  02E2               	subwf	??___flge,f
  4295  05D0  085B               	movf	___flge@ff1+1,w
  4296  05D1  3BE3               	subwfb	??___flge+1,f
  4297  05D2  085C               	movf	___flge@ff1+2,w
  4298  05D3  3BE4               	subwfb	??___flge+2,f
  4299  05D4  085D               	movf	___flge@ff1+3,w
  4300  05D5  3BE5               	subwfb	??___flge+3,f
  4301  05D6  0865               	movf	??___flge+3,w
  4302  05D7  00DD               	movwf	___flge@ff1+3
  4303  05D8  0864               	movf	??___flge+2,w
  4304  05D9  00DC               	movwf	___flge@ff1+2
  4305  05DA  0863               	movf	??___flge+1,w
  4306  05DB  00DB               	movwf	___flge@ff1+1
  4307  05DC  0862               	movf	??___flge,w
  4308  05DD  00DA               	movwf	___flge@ff1
  4309  05DE                     l2013:
  4310  05DE  1FE1               	btfss	___flge@ff2+3,7
  4311  05DF  2DE1               	goto	u1671
  4312  05E0  2DE2               	goto	u1670
  4313  05E1                     u1671:
  4314  05E1  2DFA               	goto	l602
  4315  05E2                     u1670:
  4316  05E2                     l2015:
  4317  05E2  3000               	movlw	0
  4318  05E3  00E2               	movwf	??___flge
  4319  05E4  3000               	movlw	0
  4320  05E5  00E3               	movwf	??___flge+1
  4321  05E6  3000               	movlw	0
  4322  05E7  00E4               	movwf	??___flge+2
  4323  05E8  3080               	movlw	128
  4324  05E9  00E5               	movwf	??___flge+3
  4325  05EA  085E               	movf	___flge@ff2,w
  4326  05EB  02E2               	subwf	??___flge,f
  4327  05EC  085F               	movf	___flge@ff2+1,w
  4328  05ED  3BE3               	subwfb	??___flge+1,f
  4329  05EE  0860               	movf	___flge@ff2+2,w
  4330  05EF  3BE4               	subwfb	??___flge+2,f
  4331  05F0  0861               	movf	___flge@ff2+3,w
  4332  05F1  3BE5               	subwfb	??___flge+3,f
  4333  05F2  0865               	movf	??___flge+3,w
  4334  05F3  00E1               	movwf	___flge@ff2+3
  4335  05F4  0864               	movf	??___flge+2,w
  4336  05F5  00E0               	movwf	___flge@ff2+2
  4337  05F6  0863               	movf	??___flge+1,w
  4338  05F7  00DF               	movwf	___flge@ff2+1
  4339  05F8  0862               	movf	??___flge,w
  4340  05F9  00DE               	movwf	___flge@ff2
  4341  05FA                     l602:
  4342  05FA  3080               	movlw	128
  4343  05FB  06DD               	xorwf	___flge@ff1+3,f
  4344  05FC  3080               	movlw	128
  4345  05FD  06E1               	xorwf	___flge@ff2+3,f
  4346  05FE  0861               	movf	___flge@ff2+3,w
  4347  05FF  025D               	subwf	___flge@ff1+3,w
  4348  0600  1D03               	skipz
  4349  0601  2E0C               	goto	u1685
  4350  0602  0860               	movf	___flge@ff2+2,w
  4351  0603  025C               	subwf	___flge@ff1+2,w
  4352  0604  1D03               	skipz
  4353  0605  2E0C               	goto	u1685
  4354  0606  085F               	movf	___flge@ff2+1,w
  4355  0607  025B               	subwf	___flge@ff1+1,w
  4356  0608  1D03               	skipz
  4357  0609  2E0C               	goto	u1685
  4358  060A  085E               	movf	___flge@ff2,w
  4359  060B  025A               	subwf	___flge@ff1,w
  4360  060C                     u1685:
  4361  060C  1803               	skipnc
  4362  060D  2E0F               	goto	u1681
  4363  060E  2E10               	goto	u1680
  4364  060F                     u1681:
  4365  060F  2E12               	goto	l2019
  4366  0610                     u1680:
  4367  0610                     l2017:
  4368  0610  1003               	clrc
  4369  0611  2E13               	goto	l607
  4370  0612                     l2019:
  4371  0612  1403               	setc
  4372  0613                     l607:
  4373  0613  0008               	return
  4374  0614                     __end_of___flge:
  4375                           
  4376                           	psect	text12
  4377  0776                     __ptext12:	
  4378 ;; *************** function _SYSTEM_Initialize *****************
  4379 ;; Defined at:
  4380 ;;		line 50 in file "mcc_generated_files/mcc.c"
  4381 ;; Parameters:    Size  Location     Type
  4382 ;;		None
  4383 ;; Auto vars:     Size  Location     Type
  4384 ;;		None
  4385 ;; Return value:  Size  Location     Type
  4386 ;;                  1    wreg      void 
  4387 ;; Registers used:
  4388 ;;		wreg, status,2, status,0, pclath, cstack
  4389 ;; Tracked objects:
  4390 ;;		On entry : 0/0
  4391 ;;		On exit  : 0/0
  4392 ;;		Unchanged: 0/0
  4393 ;; Data sizes:     COMMON   BANK0   BANK1   BANK2   BANK3   BANK4
  4394 ;;      Params:         0       0       0       0       0       0
  4395 ;;      Locals:         0       0       0       0       0       0
  4396 ;;      Temps:          0       0       0       0       0       0
  4397 ;;      Totals:         0       0       0       0       0       0
  4398 ;;Total ram usage:        0 bytes
  4399 ;; Hardware stack levels used: 1
  4400 ;; Hardware stack levels required when called: 5
  4401 ;; This function calls:
  4402 ;;		_ADC_Initialize
  4403 ;;		_OSCILLATOR_Initialize
  4404 ;;		_PIN_MANAGER_Initialize
  4405 ;;		_TMR0_Initialize
  4406 ;;		_WDT_Initialize
  4407 ;; This function is called by:
  4408 ;;		_main
  4409 ;; This function uses a non-reentrant model
  4410 ;;
  4411                           
  4412  0776                     _SYSTEM_Initialize:	
  4413                           ;psect for function _SYSTEM_Initialize
  4414                           
  4415  0776                     l2023:	
  4416                           ;incstack = 0
  4417                           ; Regs used in _SYSTEM_Initialize: [wreg+status,2+status,0+pclath+cstack]
  4418                           
  4419                           
  4420                           ;mcc_generated_files/mcc.c: 53:     PIN_MANAGER_Initialize();
  4421  0776  3187  2708  3187   	fcall	_PIN_MANAGER_Initialize
  4422                           
  4423                           ;mcc_generated_files/mcc.c: 54:     OSCILLATOR_Initialize();
  4424  0779  3187  27D5  3187   	fcall	_OSCILLATOR_Initialize
  4425                           
  4426                           ;mcc_generated_files/mcc.c: 55:     WDT_Initialize();
  4427  077C  3187  27EC  3187   	fcall	_WDT_Initialize
  4428                           
  4429                           ;mcc_generated_files/mcc.c: 56:     ADC_Initialize();
  4430  077F  3187  2786  3187   	fcall	_ADC_Initialize
  4431                           
  4432                           ;mcc_generated_files/mcc.c: 57:     TMR0_Initialize();
  4433  0782  3187  27A5  3187   	fcall	_TMR0_Initialize
  4434  0785                     l21:
  4435  0785  0008               	return
  4436  0786                     __end_of_SYSTEM_Initialize:
  4437                           
  4438                           	psect	text13
  4439  07EC                     __ptext13:	
  4440 ;; *************** function _WDT_Initialize *****************
  4441 ;; Defined at:
  4442 ;;		line 70 in file "mcc_generated_files/mcc.c"
  4443 ;; Parameters:    Size  Location     Type
  4444 ;;		None
  4445 ;; Auto vars:     Size  Location     Type
  4446 ;;		None
  4447 ;; Return value:  Size  Location     Type
  4448 ;;                  1    wreg      void 
  4449 ;; Registers used:
  4450 ;;		wreg
  4451 ;; Tracked objects:
  4452 ;;		On entry : 0/0
  4453 ;;		On exit  : 0/0
  4454 ;;		Unchanged: 0/0
  4455 ;; Data sizes:     COMMON   BANK0   BANK1   BANK2   BANK3   BANK4
  4456 ;;      Params:         0       0       0       0       0       0
  4457 ;;      Locals:         0       0       0       0       0       0
  4458 ;;      Temps:          0       0       0       0       0       0
  4459 ;;      Totals:         0       0       0       0       0       0
  4460 ;;Total ram usage:        0 bytes
  4461 ;; Hardware stack levels used: 1
  4462 ;; Hardware stack levels required when called: 3
  4463 ;; This function calls:
  4464 ;;		Nothing
  4465 ;; This function is called by:
  4466 ;;		_SYSTEM_Initialize
  4467 ;; This function uses a non-reentrant model
  4468 ;;
  4469                           
  4470  07EC                     _WDT_Initialize:	
  4471                           ;psect for function _WDT_Initialize
  4472                           
  4473  07EC                     l1983:	
  4474                           ;incstack = 0
  4475                           ; Regs used in _WDT_Initialize: [wreg]
  4476                           
  4477                           
  4478                           ;mcc_generated_files/mcc.c: 73:     WDTCON = 0x16;
  4479  07EC  3016               	movlw	22
  4480  07ED  0021               	movlb	1	; select bank1
  4481  07EE  0097               	movwf	23	;volatile
  4482  07EF                     l27:
  4483  07EF  0008               	return
  4484  07F0                     __end_of_WDT_Initialize:
  4485                           
  4486                           	psect	text14
  4487  07A5                     __ptext14:	
  4488 ;; *************** function _TMR0_Initialize *****************
  4489 ;; Defined at:
  4490 ;;		line 63 in file "mcc_generated_files/tmr0.c"
  4491 ;; Parameters:    Size  Location     Type
  4492 ;;		None
  4493 ;; Auto vars:     Size  Location     Type
  4494 ;;		None
  4495 ;; Return value:  Size  Location     Type
  4496 ;;                  1    wreg      void 
  4497 ;; Registers used:
  4498 ;;		wreg, status,2
  4499 ;; Tracked objects:
  4500 ;;		On entry : 0/0
  4501 ;;		On exit  : 0/0
  4502 ;;		Unchanged: 0/0
  4503 ;; Data sizes:     COMMON   BANK0   BANK1   BANK2   BANK3   BANK4
  4504 ;;      Params:         0       0       0       0       0       0
  4505 ;;      Locals:         0       0       0       0       0       0
  4506 ;;      Temps:          1       0       0       0       0       0
  4507 ;;      Totals:         1       0       0       0       0       0
  4508 ;;Total ram usage:        1 bytes
  4509 ;; Hardware stack levels used: 1
  4510 ;; Hardware stack levels required when called: 3
  4511 ;; This function calls:
  4512 ;;		Nothing
  4513 ;; This function is called by:
  4514 ;;		_SYSTEM_Initialize
  4515 ;; This function uses a non-reentrant model
  4516 ;;
  4517                           
  4518  07A5                     _TMR0_Initialize:	
  4519                           ;psect for function _TMR0_Initialize
  4520                           
  4521  07A5                     l1985:	
  4522                           ;incstack = 0
  4523                           ; Regs used in _TMR0_Initialize: [wreg+status,2]
  4524                           
  4525                           
  4526                           ;mcc_generated_files/tmr0.c: 68:     OPTION_REG = (uint8_t)((OPTION_REG & 0xC0) | (0xD0 
      +                          & 0x3F));
  4527  07A5  0021               	movlb	1	; select bank1
  4528  07A6  0815               	movf	21,w	;volatile
  4529  07A7  39C0               	andlw	192
  4530  07A8  3810               	iorlw	16
  4531  07A9  0095               	movwf	21	;volatile
  4532  07AA                     l1987:
  4533                           
  4534                           ;mcc_generated_files/tmr0.c: 71:     TMR0 = 0x60;
  4535  07AA  3060               	movlw	96
  4536  07AB  0020               	movlb	0	; select bank0
  4537  07AC  0095               	movwf	21	;volatile
  4538  07AD                     l1989:
  4539                           
  4540                           ;mcc_generated_files/tmr0.c: 74:     timer0ReloadVal= 96;
  4541  07AD  3060               	movlw	96
  4542  07AE  00F0               	movwf	??_TMR0_Initialize
  4543  07AF  0870               	movf	??_TMR0_Initialize,w
  4544  07B0  00EF               	movwf	_timer0ReloadVal	;volatile
  4545  07B1                     l1991:
  4546                           
  4547                           ;mcc_generated_files/tmr0.c: 77:     INTCONbits.TMR0IF = 0;
  4548  07B1  110B               	bcf	11,2	;volatile
  4549  07B2                     l38:
  4550  07B2  0008               	return
  4551  07B3                     __end_of_TMR0_Initialize:
  4552                           
  4553                           	psect	text15
  4554  0708                     __ptext15:	
  4555 ;; *************** function _PIN_MANAGER_Initialize *****************
  4556 ;; Defined at:
  4557 ;;		line 55 in file "mcc_generated_files/pin_manager.c"
  4558 ;; Parameters:    Size  Location     Type
  4559 ;;		None
  4560 ;; Auto vars:     Size  Location     Type
  4561 ;;		None
  4562 ;; Return value:  Size  Location     Type
  4563 ;;                  1    wreg      void 
  4564 ;; Registers used:
  4565 ;;		wreg, status,2
  4566 ;; Tracked objects:
  4567 ;;		On entry : 0/0
  4568 ;;		On exit  : 0/0
  4569 ;;		Unchanged: 0/0
  4570 ;; Data sizes:     COMMON   BANK0   BANK1   BANK2   BANK3   BANK4
  4571 ;;      Params:         0       0       0       0       0       0
  4572 ;;      Locals:         0       0       0       0       0       0
  4573 ;;      Temps:          0       0       0       0       0       0
  4574 ;;      Totals:         0       0       0       0       0       0
  4575 ;;Total ram usage:        0 bytes
  4576 ;; Hardware stack levels used: 1
  4577 ;; Hardware stack levels required when called: 3
  4578 ;; This function calls:
  4579 ;;		Nothing
  4580 ;; This function is called by:
  4581 ;;		_SYSTEM_Initialize
  4582 ;; This function uses a non-reentrant model
  4583 ;;
  4584                           
  4585  0708                     _PIN_MANAGER_Initialize:	
  4586                           ;psect for function _PIN_MANAGER_Initialize
  4587                           
  4588  0708                     l1957:	
  4589                           ;incstack = 0
  4590                           ; Regs used in _PIN_MANAGER_Initialize: [wreg+status,2]
  4591                           
  4592                           
  4593                           ;mcc_generated_files/pin_manager.c: 60:     LATA = 0x00;
  4594  0708  0022               	movlb	2	; select bank2
  4595  0709  018C               	clrf	12	;volatile
  4596  070A                     l1959:
  4597                           
  4598                           ;mcc_generated_files/pin_manager.c: 61:     LATB = 0x08;
  4599  070A  3008               	movlw	8
  4600  070B  008D               	movwf	13	;volatile
  4601  070C                     l1961:
  4602                           
  4603                           ;mcc_generated_files/pin_manager.c: 66:     TRISA = 0xFF;
  4604  070C  30FF               	movlw	255
  4605  070D  0021               	movlb	1	; select bank1
  4606  070E  008C               	movwf	12	;volatile
  4607  070F                     l1963:
  4608                           
  4609                           ;mcc_generated_files/pin_manager.c: 67:     TRISB = 0x06;
  4610  070F  3006               	movlw	6
  4611  0710  008D               	movwf	13	;volatile
  4612  0711                     l1965:
  4613                           
  4614                           ;mcc_generated_files/pin_manager.c: 72:     ANSELB = 0x00;
  4615  0711  0023               	movlb	3	; select bank3
  4616  0712  018D               	clrf	13	;volatile
  4617                           
  4618                           ;mcc_generated_files/pin_manager.c: 73:     ANSELA = 0x0F;
  4619  0713  300F               	movlw	15
  4620  0714  008C               	movwf	12	;volatile
  4621  0715                     l1967:
  4622                           
  4623                           ;mcc_generated_files/pin_manager.c: 78:     WPUB = 0x00;
  4624  0715  0024               	movlb	4	; select bank4
  4625  0716  018D               	clrf	13	;volatile
  4626  0717                     l1969:
  4627                           
  4628                           ;mcc_generated_files/pin_manager.c: 79:     WPUA = 0x00;
  4629  0717  018C               	clrf	12	;volatile
  4630  0718                     l1971:
  4631                           
  4632                           ;mcc_generated_files/pin_manager.c: 80:     OPTION_REGbits.nWPUEN = 1;
  4633  0718  0021               	movlb	1	; select bank1
  4634  0719  1795               	bsf	21,7	;volatile
  4635  071A                     l1973:
  4636                           
  4637                           ;mcc_generated_files/pin_manager.c: 86:     APFCON0 = 0x00;
  4638  071A  0022               	movlb	2	; select bank2
  4639  071B  019D               	clrf	29	;volatile
  4640  071C                     l1975:
  4641                           
  4642                           ;mcc_generated_files/pin_manager.c: 87:     APFCON1 = 0x00;
  4643  071C  019E               	clrf	30	;volatile
  4644  071D                     l148:
  4645  071D  0008               	return
  4646  071E                     __end_of_PIN_MANAGER_Initialize:
  4647                           
  4648                           	psect	text16
  4649  07D5                     __ptext16:	
  4650 ;; *************** function _OSCILLATOR_Initialize *****************
  4651 ;; Defined at:
  4652 ;;		line 60 in file "mcc_generated_files/mcc.c"
  4653 ;; Parameters:    Size  Location     Type
  4654 ;;		None
  4655 ;; Auto vars:     Size  Location     Type
  4656 ;;		None
  4657 ;; Return value:  Size  Location     Type
  4658 ;;                  1    wreg      void 
  4659 ;; Registers used:
  4660 ;;		wreg, status,2
  4661 ;; Tracked objects:
  4662 ;;		On entry : 0/0
  4663 ;;		On exit  : 0/0
  4664 ;;		Unchanged: 0/0
  4665 ;; Data sizes:     COMMON   BANK0   BANK1   BANK2   BANK3   BANK4
  4666 ;;      Params:         0       0       0       0       0       0
  4667 ;;      Locals:         0       0       0       0       0       0
  4668 ;;      Temps:          0       0       0       0       0       0
  4669 ;;      Totals:         0       0       0       0       0       0
  4670 ;;Total ram usage:        0 bytes
  4671 ;; Hardware stack levels used: 1
  4672 ;; Hardware stack levels required when called: 3
  4673 ;; This function calls:
  4674 ;;		Nothing
  4675 ;; This function is called by:
  4676 ;;		_SYSTEM_Initialize
  4677 ;; This function uses a non-reentrant model
  4678 ;;
  4679                           
  4680  07D5                     _OSCILLATOR_Initialize:	
  4681                           ;psect for function _OSCILLATOR_Initialize
  4682                           
  4683  07D5                     l1977:	
  4684                           ;incstack = 0
  4685                           ; Regs used in _OSCILLATOR_Initialize: [wreg+status,2]
  4686                           
  4687                           
  4688                           ;mcc_generated_files/mcc.c: 63:     OSCCON = 0x38;
  4689  07D5  3038               	movlw	56
  4690  07D6  0021               	movlb	1	; select bank1
  4691  07D7  0099               	movwf	25	;volatile
  4692  07D8                     l1979:
  4693                           
  4694                           ;mcc_generated_files/mcc.c: 65:     OSCTUNE = 0x00;
  4695  07D8  0198               	clrf	24	;volatile
  4696  07D9                     l1981:
  4697                           
  4698                           ;mcc_generated_files/mcc.c: 67:     BORCON = 0x00;
  4699  07D9  0022               	movlb	2	; select bank2
  4700  07DA  0196               	clrf	22	;volatile
  4701  07DB                     l24:
  4702  07DB  0008               	return
  4703  07DC                     __end_of_OSCILLATOR_Initialize:
  4704                           
  4705                           	psect	text17
  4706  0786                     __ptext17:	
  4707 ;; *************** function _ADC_Initialize *****************
  4708 ;; Defined at:
  4709 ;;		line 67 in file "mcc_generated_files/adc.c"
  4710 ;; Parameters:    Size  Location     Type
  4711 ;;		None
  4712 ;; Auto vars:     Size  Location     Type
  4713 ;;		None
  4714 ;; Return value:  Size  Location     Type
  4715 ;;                  1    wreg      void 
  4716 ;; Registers used:
  4717 ;;		wreg, status,2, status,0, pclath, cstack
  4718 ;; Tracked objects:
  4719 ;;		On entry : 0/0
  4720 ;;		On exit  : 0/0
  4721 ;;		Unchanged: 0/0
  4722 ;; Data sizes:     COMMON   BANK0   BANK1   BANK2   BANK3   BANK4
  4723 ;;      Params:         0       0       0       0       0       0
  4724 ;;      Locals:         0       0       0       0       0       0
  4725 ;;      Temps:          0       0       0       0       0       0
  4726 ;;      Totals:         0       0       0       0       0       0
  4727 ;;Total ram usage:        0 bytes
  4728 ;; Hardware stack levels used: 1
  4729 ;; Hardware stack levels required when called: 4
  4730 ;; This function calls:
  4731 ;;		_ADC_SetInterruptHandler
  4732 ;; This function is called by:
  4733 ;;		_SYSTEM_Initialize
  4734 ;;		_read_battery_voltage
  4735 ;; This function uses a non-reentrant model
  4736 ;;
  4737                           
  4738  0786                     _ADC_Initialize:	
  4739                           ;psect for function _ADC_Initialize
  4740                           
  4741  0786                     l1613:	
  4742                           ;incstack = 0
  4743                           ; Regs used in _ADC_Initialize: [wreg+status,2+status,0+pclath+cstack]
  4744                           
  4745                           
  4746                           ;mcc_generated_files/adc.c: 72:     ADCON1 = 0x60;
  4747  0786  3060               	movlw	96
  4748  0787  0021               	movlb	1	; select bank1
  4749  0788  009E               	movwf	30	;volatile
  4750  0789                     l1615:
  4751                           
  4752                           ;mcc_generated_files/adc.c: 75:     ADRESL = 0x00;
  4753  0789  019B               	clrf	27	;volatile
  4754  078A                     l1617:
  4755                           
  4756                           ;mcc_generated_files/adc.c: 78:     ADRESH = 0x00;
  4757  078A  019C               	clrf	28	;volatile
  4758                           
  4759                           ;mcc_generated_files/adc.c: 81:     ADCON0 = 0x01;
  4760  078B  3001               	movlw	1
  4761  078C  009D               	movwf	29	;volatile
  4762  078D                     l1619:
  4763                           
  4764                           ;mcc_generated_files/adc.c: 84:     PIE1bits.ADIE = 1;
  4765  078D  1711               	bsf	17,6	;volatile
  4766  078E                     l1621:
  4767                           
  4768                           ;mcc_generated_files/adc.c: 87:     ADC_SetInterruptHandler(ADC_DefaultInterruptHandler)
      +                          ;
  4769  078E  30F3               	movlw	low _ADC_DefaultInterruptHandler
  4770  078F  00F0               	movwf	ADC_SetInterruptHandler@InterruptHandler
  4771  0790  3007               	movlw	high _ADC_DefaultInterruptHandler
  4772  0791  00F1               	movwf	ADC_SetInterruptHandler@InterruptHandler+1
  4773  0792  3187  27E2  3187   	fcall	_ADC_SetInterruptHandler
  4774  0795                     l92:
  4775  0795  0008               	return
  4776  0796                     __end_of_ADC_Initialize:
  4777                           
  4778                           	psect	text18
  4779  07E2                     __ptext18:	
  4780 ;; *************** function _ADC_SetInterruptHandler *****************
  4781 ;; Defined at:
  4782 ;;		line 156 in file "mcc_generated_files/adc.c"
  4783 ;; Parameters:    Size  Location     Type
  4784 ;;  InterruptHan    2    0[COMMON] PTR FTN()void 
  4785 ;;		 -> ADC_DefaultInterruptHandler(1), 
  4786 ;; Auto vars:     Size  Location     Type
  4787 ;;		None
  4788 ;; Return value:  Size  Location     Type
  4789 ;;                  1    wreg      void 
  4790 ;; Registers used:
  4791 ;;		wreg
  4792 ;; Tracked objects:
  4793 ;;		On entry : 0/0
  4794 ;;		On exit  : 0/0
  4795 ;;		Unchanged: 0/0
  4796 ;; Data sizes:     COMMON   BANK0   BANK1   BANK2   BANK3   BANK4
  4797 ;;      Params:         2       0       0       0       0       0
  4798 ;;      Locals:         0       0       0       0       0       0
  4799 ;;      Temps:          0       0       0       0       0       0
  4800 ;;      Totals:         2       0       0       0       0       0
  4801 ;;Total ram usage:        2 bytes
  4802 ;; Hardware stack levels used: 1
  4803 ;; Hardware stack levels required when called: 3
  4804 ;; This function calls:
  4805 ;;		Nothing
  4806 ;; This function is called by:
  4807 ;;		_ADC_Initialize
  4808 ;; This function uses a non-reentrant model
  4809 ;;
  4810                           
  4811  07E2                     _ADC_SetInterruptHandler:	
  4812                           ;psect for function _ADC_SetInterruptHandler
  4813                           
  4814  07E2                     l1597:	
  4815                           ;incstack = 0
  4816                           ; Regs used in _ADC_SetInterruptHandler: [wreg]
  4817                           
  4818                           
  4819                           ;mcc_generated_files/adc.c: 157:     ADC_InterruptHandler = InterruptHandler;
  4820  07E2  0871               	movf	ADC_SetInterruptHandler@InterruptHandler+1,w
  4821  07E3  0021               	movlb	1	; select bank1
  4822  07E4  00A3               	movwf	(_ADC_InterruptHandler+1)^(0+128)
  4823  07E5  0870               	movf	ADC_SetInterruptHandler@InterruptHandler,w
  4824  07E6  00A2               	movwf	_ADC_InterruptHandler^(0+128)
  4825  07E7                     l120:
  4826  07E7  0008               	return
  4827  07E8                     __end_of_ADC_SetInterruptHandler:
  4828                           
  4829                           	psect	text19
  4830  071E                     __ptext19:	
  4831 ;; *************** function _SEQ4 *****************
  4832 ;; Defined at:
  4833 ;;		line 211 in file "main.c"
  4834 ;; Parameters:    Size  Location     Type
  4835 ;;  set             2    0[COMMON] int 
  4836 ;; Auto vars:     Size  Location     Type
  4837 ;;  exit_code       2    0        int 
  4838 ;; Return value:  Size  Location     Type
  4839 ;;                  2    0[COMMON] int 
  4840 ;; Registers used:
  4841 ;;		wreg, fsr0l, fsr0h, status,2, status,0
  4842 ;; Tracked objects:
  4843 ;;		On entry : 0/0
  4844 ;;		On exit  : 0/0
  4845 ;;		Unchanged: 0/0
  4846 ;; Data sizes:     COMMON   BANK0   BANK1   BANK2   BANK3   BANK4
  4847 ;;      Params:         2       0       0       0       0       0
  4848 ;;      Locals:         0       0       0       0       0       0
  4849 ;;      Temps:          0       0       0       0       0       0
  4850 ;;      Totals:         2       0       0       0       0       0
  4851 ;;Total ram usage:        2 bytes
  4852 ;; Hardware stack levels used: 1
  4853 ;; Hardware stack levels required when called: 3
  4854 ;; This function calls:
  4855 ;;		Nothing
  4856 ;; This function is called by:
  4857 ;;		_main
  4858 ;; This function uses a non-reentrant model
  4859 ;;
  4860                           
  4861  071E                     _SEQ4:	
  4862                           ;psect for function _SEQ4
  4863                           
  4864  071E                     l2089:	
  4865                           ;incstack = 0
  4866                           ; Regs used in _SEQ4: [wreg-fsr0h+status,2+status,0]
  4867                           
  4868                           
  4869                           ;main.c: 215:     switch (set) {
  4870  071E  2F26               	goto	l2093
  4871  071F                     l232:	
  4872                           ;main.c: 217:             do { LATBbits.LATB6 = 1; } while(0);
  4873                           
  4874  071F  0022               	movlb	2	; select bank2
  4875  0720  170D               	bsf	13,6	;volatile
  4876  0721  2F33               	goto	l239
  4877  0722                     l236:	
  4878                           ;main.c: 221:             do { LATBbits.LATB6 = 0; } while(0);
  4879                           
  4880  0722  0022               	movlb	2	; select bank2
  4881  0723  130D               	bcf	13,6	;volatile
  4882  0724  2F33               	goto	l239
  4883  0725                     l2091:
  4884                           
  4885                           ;main.c: 227:     }
  4886  0725  2F33               	goto	l239
  4887  0726                     l2093:
  4888                           
  4889                           ; Switch on 2 bytes has been partitioned into a top level switch of size 1, and 1 sub-sw
      +                          itches
  4890                           ; Switch size 1, requested type "simple"
  4891                           ; Number of cases is 1, Range of values is 0 to 0
  4892                           ; switch strategies available:
  4893                           ; Name         Instructions Cycles
  4894                           ; simple_byte            4     3 (average)
  4895                           ; direct_byte            8     6 (fixed)
  4896                           ; jumptable            260     6 (fixed)
  4897                           ;	Chosen strategy is simple_byte
  4898  0726  0871               	movf	SEQ4@set+1,w
  4899  0727  3A00               	xorlw	0	; case 0
  4900  0728  1903               	skipnz
  4901  0729  2F2B               	goto	l2289
  4902  072A  2F25               	goto	l2091
  4903  072B                     l2289:
  4904                           
  4905                           ; Switch size 1, requested type "simple"
  4906                           ; Number of cases is 2, Range of values is 0 to 1
  4907                           ; switch strategies available:
  4908                           ; Name         Instructions Cycles
  4909                           ; simple_byte            7     4 (average)
  4910                           ; direct_byte           10     6 (fixed)
  4911                           ; jumptable            260     6 (fixed)
  4912                           ;	Chosen strategy is simple_byte
  4913  072B  0870               	movf	SEQ4@set,w
  4914  072C  3A00               	xorlw	0	; case 0
  4915  072D  1903               	skipnz
  4916  072E  2F22               	goto	l236
  4917  072F  3A01               	xorlw	1	; case 1
  4918  0730  1903               	skipnz
  4919  0731  2F1F               	goto	l232
  4920  0732  2F25               	goto	l2091
  4921  0733                     l239:
  4922  0733  0008               	return
  4923  0734                     __end_of_SEQ4:
  4924                           
  4925                           	psect	text20
  4926  0734                     __ptext20:	
  4927 ;; *************** function _SEQ3 *****************
  4928 ;; Defined at:
  4929 ;;		line 190 in file "main.c"
  4930 ;; Parameters:    Size  Location     Type
  4931 ;;  set             2    0[COMMON] int 
  4932 ;; Auto vars:     Size  Location     Type
  4933 ;;  exit_code       2    0        int 
  4934 ;; Return value:  Size  Location     Type
  4935 ;;                  2    0[COMMON] int 
  4936 ;; Registers used:
  4937 ;;		wreg, fsr0l, fsr0h, status,2, status,0
  4938 ;; Tracked objects:
  4939 ;;		On entry : 0/0
  4940 ;;		On exit  : 0/0
  4941 ;;		Unchanged: 0/0
  4942 ;; Data sizes:     COMMON   BANK0   BANK1   BANK2   BANK3   BANK4
  4943 ;;      Params:         2       0       0       0       0       0
  4944 ;;      Locals:         0       0       0       0       0       0
  4945 ;;      Temps:          0       0       0       0       0       0
  4946 ;;      Totals:         2       0       0       0       0       0
  4947 ;;Total ram usage:        2 bytes
  4948 ;; Hardware stack levels used: 1
  4949 ;; Hardware stack levels required when called: 3
  4950 ;; This function calls:
  4951 ;;		Nothing
  4952 ;; This function is called by:
  4953 ;;		_main
  4954 ;; This function uses a non-reentrant model
  4955 ;;
  4956                           
  4957  0734                     _SEQ3:	
  4958                           ;psect for function _SEQ3
  4959                           
  4960  0734                     l2079:	
  4961                           ;incstack = 0
  4962                           ; Regs used in _SEQ3: [wreg-fsr0h+status,2+status,0]
  4963                           
  4964                           
  4965                           ;main.c: 194:     switch (set) {
  4966  0734  2F3C               	goto	l2083
  4967  0735                     l220:	
  4968                           ;main.c: 196:             do { LATBbits.LATB7 = 1; } while(0);
  4969                           
  4970  0735  0022               	movlb	2	; select bank2
  4971  0736  178D               	bsf	13,7	;volatile
  4972  0737  2F49               	goto	l227
  4973  0738                     l224:	
  4974                           ;main.c: 200:             do { LATBbits.LATB7 = 0; } while(0);
  4975                           
  4976  0738  0022               	movlb	2	; select bank2
  4977  0739  138D               	bcf	13,7	;volatile
  4978  073A  2F49               	goto	l227
  4979  073B                     l2081:
  4980                           
  4981                           ;main.c: 206:     }
  4982  073B  2F49               	goto	l227
  4983  073C                     l2083:
  4984                           
  4985                           ; Switch on 2 bytes has been partitioned into a top level switch of size 1, and 1 sub-sw
      +                          itches
  4986                           ; Switch size 1, requested type "simple"
  4987                           ; Number of cases is 1, Range of values is 0 to 0
  4988                           ; switch strategies available:
  4989                           ; Name         Instructions Cycles
  4990                           ; simple_byte            4     3 (average)
  4991                           ; direct_byte            8     6 (fixed)
  4992                           ; jumptable            260     6 (fixed)
  4993                           ;	Chosen strategy is simple_byte
  4994  073C  0871               	movf	SEQ3@set+1,w
  4995  073D  3A00               	xorlw	0	; case 0
  4996  073E  1903               	skipnz
  4997  073F  2F41               	goto	l2291
  4998  0740  2F3B               	goto	l2081
  4999  0741                     l2291:
  5000                           
  5001                           ; Switch size 1, requested type "simple"
  5002                           ; Number of cases is 2, Range of values is 0 to 1
  5003                           ; switch strategies available:
  5004                           ; Name         Instructions Cycles
  5005                           ; simple_byte            7     4 (average)
  5006                           ; direct_byte           10     6 (fixed)
  5007                           ; jumptable            260     6 (fixed)
  5008                           ;	Chosen strategy is simple_byte
  5009  0741  0870               	movf	SEQ3@set,w
  5010  0742  3A00               	xorlw	0	; case 0
  5011  0743  1903               	skipnz
  5012  0744  2F38               	goto	l224
  5013  0745  3A01               	xorlw	1	; case 1
  5014  0746  1903               	skipnz
  5015  0747  2F35               	goto	l220
  5016  0748  2F3B               	goto	l2081
  5017  0749                     l227:
  5018  0749  0008               	return
  5019  074A                     __end_of_SEQ3:
  5020                           
  5021                           	psect	text21
  5022  074A                     __ptext21:	
  5023 ;; *************** function _SEQ2 *****************
  5024 ;; Defined at:
  5025 ;;		line 169 in file "main.c"
  5026 ;; Parameters:    Size  Location     Type
  5027 ;;  set             2    0[COMMON] int 
  5028 ;; Auto vars:     Size  Location     Type
  5029 ;;  exit_code       2    0        int 
  5030 ;; Return value:  Size  Location     Type
  5031 ;;                  2    0[COMMON] int 
  5032 ;; Registers used:
  5033 ;;		wreg, fsr0l, fsr0h, status,2, status,0
  5034 ;; Tracked objects:
  5035 ;;		On entry : 0/0
  5036 ;;		On exit  : 0/0
  5037 ;;		Unchanged: 0/0
  5038 ;; Data sizes:     COMMON   BANK0   BANK1   BANK2   BANK3   BANK4
  5039 ;;      Params:         2       0       0       0       0       0
  5040 ;;      Locals:         0       0       0       0       0       0
  5041 ;;      Temps:          0       0       0       0       0       0
  5042 ;;      Totals:         2       0       0       0       0       0
  5043 ;;Total ram usage:        2 bytes
  5044 ;; Hardware stack levels used: 1
  5045 ;; Hardware stack levels required when called: 3
  5046 ;; This function calls:
  5047 ;;		Nothing
  5048 ;; This function is called by:
  5049 ;;		_main
  5050 ;; This function uses a non-reentrant model
  5051 ;;
  5052                           
  5053  074A                     _SEQ2:	
  5054                           ;psect for function _SEQ2
  5055                           
  5056  074A                     l2069:	
  5057                           ;incstack = 0
  5058                           ; Regs used in _SEQ2: [wreg-fsr0h+status,2+status,0]
  5059                           
  5060                           
  5061                           ;main.c: 173:     switch (set) {
  5062  074A  2F52               	goto	l2073
  5063  074B                     l208:	
  5064                           ;main.c: 175:             do { LATBbits.LATB5 = 1; } while(0);
  5065                           
  5066  074B  0022               	movlb	2	; select bank2
  5067  074C  168D               	bsf	13,5	;volatile
  5068  074D  2F5F               	goto	l215
  5069  074E                     l212:	
  5070                           ;main.c: 179:             do { LATBbits.LATB5 = 0; } while(0);
  5071                           
  5072  074E  0022               	movlb	2	; select bank2
  5073  074F  128D               	bcf	13,5	;volatile
  5074  0750  2F5F               	goto	l215
  5075  0751                     l2071:
  5076                           
  5077                           ;main.c: 185:     }
  5078  0751  2F5F               	goto	l215
  5079  0752                     l2073:
  5080                           
  5081                           ; Switch on 2 bytes has been partitioned into a top level switch of size 1, and 1 sub-sw
      +                          itches
  5082                           ; Switch size 1, requested type "simple"
  5083                           ; Number of cases is 1, Range of values is 0 to 0
  5084                           ; switch strategies available:
  5085                           ; Name         Instructions Cycles
  5086                           ; simple_byte            4     3 (average)
  5087                           ; direct_byte            8     6 (fixed)
  5088                           ; jumptable            260     6 (fixed)
  5089                           ;	Chosen strategy is simple_byte
  5090  0752  0871               	movf	SEQ2@set+1,w
  5091  0753  3A00               	xorlw	0	; case 0
  5092  0754  1903               	skipnz
  5093  0755  2F57               	goto	l2293
  5094  0756  2F51               	goto	l2071
  5095  0757                     l2293:
  5096                           
  5097                           ; Switch size 1, requested type "simple"
  5098                           ; Number of cases is 2, Range of values is 0 to 1
  5099                           ; switch strategies available:
  5100                           ; Name         Instructions Cycles
  5101                           ; simple_byte            7     4 (average)
  5102                           ; direct_byte           10     6 (fixed)
  5103                           ; jumptable            260     6 (fixed)
  5104                           ;	Chosen strategy is simple_byte
  5105  0757  0870               	movf	SEQ2@set,w
  5106  0758  3A00               	xorlw	0	; case 0
  5107  0759  1903               	skipnz
  5108  075A  2F4E               	goto	l212
  5109  075B  3A01               	xorlw	1	; case 1
  5110  075C  1903               	skipnz
  5111  075D  2F4B               	goto	l208
  5112  075E  2F51               	goto	l2071
  5113  075F                     l215:
  5114  075F  0008               	return
  5115  0760                     __end_of_SEQ2:
  5116                           
  5117                           	psect	text22
  5118  0760                     __ptext22:	
  5119 ;; *************** function _SEQ1 *****************
  5120 ;; Defined at:
  5121 ;;		line 148 in file "main.c"
  5122 ;; Parameters:    Size  Location     Type
  5123 ;;  set             2    0[COMMON] int 
  5124 ;; Auto vars:     Size  Location     Type
  5125 ;;  exit_code       2    0        int 
  5126 ;; Return value:  Size  Location     Type
  5127 ;;                  2    0[COMMON] int 
  5128 ;; Registers used:
  5129 ;;		wreg, fsr0l, fsr0h, status,2, status,0
  5130 ;; Tracked objects:
  5131 ;;		On entry : 0/0
  5132 ;;		On exit  : 0/0
  5133 ;;		Unchanged: 0/0
  5134 ;; Data sizes:     COMMON   BANK0   BANK1   BANK2   BANK3   BANK4
  5135 ;;      Params:         2       0       0       0       0       0
  5136 ;;      Locals:         0       0       0       0       0       0
  5137 ;;      Temps:          0       0       0       0       0       0
  5138 ;;      Totals:         2       0       0       0       0       0
  5139 ;;Total ram usage:        2 bytes
  5140 ;; Hardware stack levels used: 1
  5141 ;; Hardware stack levels required when called: 3
  5142 ;; This function calls:
  5143 ;;		Nothing
  5144 ;; This function is called by:
  5145 ;;		_main
  5146 ;; This function uses a non-reentrant model
  5147 ;;
  5148                           
  5149  0760                     _SEQ1:	
  5150                           ;psect for function _SEQ1
  5151                           
  5152  0760                     l2059:	
  5153                           ;incstack = 0
  5154                           ; Regs used in _SEQ1: [wreg-fsr0h+status,2+status,0]
  5155                           
  5156                           
  5157                           ;main.c: 152:     switch (set) {
  5158  0760  2F68               	goto	l2063
  5159  0761                     l196:	
  5160                           ;main.c: 154:             do { LATBbits.LATB4 = 1; } while(0);
  5161                           
  5162  0761  0022               	movlb	2	; select bank2
  5163  0762  160D               	bsf	13,4	;volatile
  5164  0763  2F75               	goto	l203
  5165  0764                     l200:	
  5166                           ;main.c: 158:             do { LATBbits.LATB4 = 0; } while(0);
  5167                           
  5168  0764  0022               	movlb	2	; select bank2
  5169  0765  120D               	bcf	13,4	;volatile
  5170  0766  2F75               	goto	l203
  5171  0767                     l2061:
  5172                           
  5173                           ;main.c: 164:     }
  5174  0767  2F75               	goto	l203
  5175  0768                     l2063:
  5176                           
  5177                           ; Switch on 2 bytes has been partitioned into a top level switch of size 1, and 1 sub-sw
      +                          itches
  5178                           ; Switch size 1, requested type "simple"
  5179                           ; Number of cases is 1, Range of values is 0 to 0
  5180                           ; switch strategies available:
  5181                           ; Name         Instructions Cycles
  5182                           ; simple_byte            4     3 (average)
  5183                           ; direct_byte            8     6 (fixed)
  5184                           ; jumptable            260     6 (fixed)
  5185                           ;	Chosen strategy is simple_byte
  5186  0768  0871               	movf	SEQ1@set+1,w
  5187  0769  3A00               	xorlw	0	; case 0
  5188  076A  1903               	skipnz
  5189  076B  2F6D               	goto	l2295
  5190  076C  2F67               	goto	l2061
  5191  076D                     l2295:
  5192                           
  5193                           ; Switch size 1, requested type "simple"
  5194                           ; Number of cases is 2, Range of values is 0 to 1
  5195                           ; switch strategies available:
  5196                           ; Name         Instructions Cycles
  5197                           ; simple_byte            7     4 (average)
  5198                           ; direct_byte           10     6 (fixed)
  5199                           ; jumptable            260     6 (fixed)
  5200                           ;	Chosen strategy is simple_byte
  5201  076D  0870               	movf	SEQ1@set,w
  5202  076E  3A00               	xorlw	0	; case 0
  5203  076F  1903               	skipnz
  5204  0770  2F64               	goto	l200
  5205  0771  3A01               	xorlw	1	; case 1
  5206  0772  1903               	skipnz
  5207  0773  2F61               	goto	l196
  5208  0774  2F67               	goto	l2061
  5209  0775                     l203:
  5210  0775  0008               	return
  5211  0776                     __end_of_SEQ1:
  5212                           
  5213                           	psect	intentry
  5214  0004                     __pintentry:	
  5215 ;; *************** function _INTERRUPT_InterruptManager *****************
  5216 ;; Defined at:
  5217 ;;		line 52 in file "mcc_generated_files/interrupt_manager.c"
  5218 ;; Parameters:    Size  Location     Type
  5219 ;;		None
  5220 ;; Auto vars:     Size  Location     Type
  5221 ;;		None
  5222 ;; Return value:  Size  Location     Type
  5223 ;;                  1    wreg      void 
  5224 ;; Registers used:
  5225 ;;		wreg, status,2, status,0, pclath, cstack
  5226 ;; Tracked objects:
  5227 ;;		On entry : 0/0
  5228 ;;		On exit  : 0/0
  5229 ;;		Unchanged: 0/0
  5230 ;; Data sizes:     COMMON   BANK0   BANK1   BANK2   BANK3   BANK4
  5231 ;;      Params:         0       0       0       0       0       0
  5232 ;;      Locals:         0       0       0       0       0       0
  5233 ;;      Temps:          0       0       0       0       0       0
  5234 ;;      Totals:         0       0       0       0       0       0
  5235 ;;Total ram usage:        0 bytes
  5236 ;; Hardware stack levels used: 1
  5237 ;; Hardware stack levels required when called: 2
  5238 ;; This function calls:
  5239 ;;		_ADC_ISR
  5240 ;; This function is called by:
  5241 ;;		Interrupt level 1
  5242 ;; This function uses a non-reentrant model
  5243 ;;
  5244                           
  5245  0004                     _INTERRUPT_InterruptManager:
  5246                           
  5247                           ;incstack = 0
  5248  0004  147E               	bsf	int$flags,0	;set compiler interrupt flag (level 1)
  5249                           
  5250                           ; Regs used in _INTERRUPT_InterruptManager: [wreg+status,2+status,0+pclath+cstack]
  5251  0005  3180               	pagesel	$
  5252  0006                     i1l2117:
  5253                           
  5254                           ;mcc_generated_files/interrupt_manager.c: 55:     if(INTCONbits.PEIE == 1)
  5255  0006  1F0B               	btfss	11,6	;volatile
  5256  0007  2809               	goto	u177_21
  5257  0008  280A               	goto	u177_20
  5258  0009                     u177_21:
  5259  0009  2817               	goto	i1l67
  5260  000A                     u177_20:
  5261  000A                     i1l2119:
  5262                           
  5263                           ;mcc_generated_files/interrupt_manager.c: 56:     {;mcc_generated_files/interrupt_manage
      +                          r.c: 57:         if(PIE1bits.ADIE == 1 && PIR1bits.ADIF == 1)
  5264  000A  0021               	movlb	1	; select bank1
  5265  000B  1F11               	btfss	17,6	;volatile
  5266  000C  280E               	goto	u178_21
  5267  000D  280F               	goto	u178_20
  5268  000E                     u178_21:
  5269  000E  2817               	goto	i1l67
  5270  000F                     u178_20:
  5271  000F                     i1l2121:
  5272  000F  0020               	movlb	0	; select bank0
  5273  0010  1F11               	btfss	17,6	;volatile
  5274  0011  2813               	goto	u179_21
  5275  0012  2814               	goto	u179_20
  5276  0013                     u179_21:
  5277  0013  2817               	goto	i1l67
  5278  0014                     u179_20:
  5279  0014                     i1l2123:
  5280                           
  5281                           ;mcc_generated_files/interrupt_manager.c: 58:         {;mcc_generated_files/interrupt_ma
      +                          nager.c: 59:             ADC_ISR();
  5282  0014  3187  2796  3180   	fcall	_ADC_ISR
  5283  0017                     i1l67:	
  5284                           ;mcc_generated_files/interrupt_manager.c: 60:         }
  5285                           
  5286  0017  107E               	bcf	int$flags,0	;clear compiler interrupt flag (level 1)
  5287  0018  0009               	retfie
  5288  0019                     __end_of_INTERRUPT_InterruptManager:
  5289                           
  5290                           	psect	text24
  5291  0796                     __ptext24:	
  5292 ;; *************** function _ADC_ISR *****************
  5293 ;; Defined at:
  5294 ;;		line 145 in file "mcc_generated_files/adc.c"
  5295 ;; Parameters:    Size  Location     Type
  5296 ;;		None
  5297 ;; Auto vars:     Size  Location     Type
  5298 ;;		None
  5299 ;; Return value:  Size  Location     Type
  5300 ;;                  1    wreg      void 
  5301 ;; Registers used:
  5302 ;;		wreg, status,2, status,0, pclath, cstack
  5303 ;; Tracked objects:
  5304 ;;		On entry : 0/0
  5305 ;;		On exit  : 0/0
  5306 ;;		Unchanged: 0/0
  5307 ;; Data sizes:     COMMON   BANK0   BANK1   BANK2   BANK3   BANK4
  5308 ;;      Params:         0       0       0       0       0       0
  5309 ;;      Locals:         0       0       0       0       0       0
  5310 ;;      Temps:          0       0       0       0       0       0
  5311 ;;      Totals:         0       0       0       0       0       0
  5312 ;;Total ram usage:        0 bytes
  5313 ;; Hardware stack levels used: 1
  5314 ;; Hardware stack levels required when called: 1
  5315 ;; This function calls:
  5316 ;;		Absolute function
  5317 ;;		_ADC_DefaultInterruptHandler
  5318 ;; This function is called by:
  5319 ;;		_INTERRUPT_InterruptManager
  5320 ;; This function uses a non-reentrant model
  5321 ;;
  5322                           
  5323  0796                     _ADC_ISR:	
  5324                           ;psect for function _ADC_ISR
  5325                           
  5326  0796                     i1l2025:	
  5327                           ;incstack = 0
  5328                           ; Regs used in _ADC_ISR: [wreg+status,2+status,0+pclath+cstack]
  5329                           
  5330                           
  5331                           ;mcc_generated_files/adc.c: 148:     PIR1bits.ADIF = 0;
  5332  0796  0020               	movlb	0	; select bank0
  5333  0797  1311               	bcf	17,6	;volatile
  5334  0798                     i1l2027:
  5335                           
  5336                           ;mcc_generated_files/adc.c: 150:  if(ADC_InterruptHandler)
  5337  0798  0021               	movlb	1	; select bank1
  5338  0799  0822               	movf	_ADC_InterruptHandler^(0+128),w
  5339  079A  0423               	iorwf	(_ADC_InterruptHandler+1)^(0+128),w
  5340  079B  1903               	btfsc	3,2
  5341  079C  2F9E               	goto	u169_21
  5342  079D  2F9F               	goto	u169_20
  5343  079E                     u169_21:
  5344  079E  2FA4               	goto	i1l117
  5345  079F                     u169_20:
  5346  079F                     i1l2029:
  5347                           
  5348                           ;mcc_generated_files/adc.c: 151:     {;mcc_generated_files/adc.c: 152:         ADC_Inter
      +                          ruptHandler();
  5349  079F  0823               	movf	(_ADC_InterruptHandler+1)^(0+128),w
  5350  07A0  008A               	movwf	10
  5351  07A1  0822               	movf	_ADC_InterruptHandler^(0+128),w
  5352  07A2  000A               	callw
  5353  07A3  3187               	pagesel	$
  5354  07A4                     i1l117:
  5355  07A4  0008               	return
  5356  07A5                     __end_of_ADC_ISR:
  5357                           
  5358                           	psect	text25
  5359  07F3                     __ptext25:	
  5360 ;; *************** function _ADC_DefaultInterruptHandler *****************
  5361 ;; Defined at:
  5362 ;;		line 160 in file "mcc_generated_files/adc.c"
  5363 ;; Parameters:    Size  Location     Type
  5364 ;;		None
  5365 ;; Auto vars:     Size  Location     Type
  5366 ;;		None
  5367 ;; Return value:  Size  Location     Type
  5368 ;;                  1    wreg      void 
  5369 ;; Registers used:
  5370 ;;		None
  5371 ;; Tracked objects:
  5372 ;;		On entry : 0/0
  5373 ;;		On exit  : 0/0
  5374 ;;		Unchanged: 0/0
  5375 ;; Data sizes:     COMMON   BANK0   BANK1   BANK2   BANK3   BANK4
  5376 ;;      Params:         0       0       0       0       0       0
  5377 ;;      Locals:         0       0       0       0       0       0
  5378 ;;      Temps:          0       0       0       0       0       0
  5379 ;;      Totals:         0       0       0       0       0       0
  5380 ;;Total ram usage:        0 bytes
  5381 ;; Hardware stack levels used: 1
  5382 ;; This function calls:
  5383 ;;		Nothing
  5384 ;; This function is called by:
  5385 ;;		_ADC_Initialize
  5386 ;;		_ADC_ISR
  5387 ;; This function uses a non-reentrant model
  5388 ;;
  5389                           
  5390  07F3                     _ADC_DefaultInterruptHandler:	
  5391                           ;psect for function _ADC_DefaultInterruptHandler
  5392                           
  5393  07F3                     i1l123:	
  5394                           ;incstack = 0
  5395                           ; Regs used in _ADC_DefaultInterruptHandler: []
  5396                           
  5397  07F3  0008               	return
  5398  07F4                     __end_of_ADC_DefaultInterruptHandler:
  5399  007E                     btemp	set	126	;btemp
  5400  007E                     int$flags	set	126
  5401  007E                     wtemp0	set	126
  5402                           
  5403                           	psect	idloc
  5404                           
  5405                           ;Config register IDLOC0 @ 0x8000
  5406                           ;	unspecified, using default values
  5407  8000                     	org	32768
  5408  8000  3FFF               	dw	16383
  5409                           
  5410                           ;Config register IDLOC1 @ 0x8001
  5411                           ;	unspecified, using default values
  5412  8001                     	org	32769
  5413  8001  3FFF               	dw	16383
  5414                           
  5415                           ;Config register IDLOC2 @ 0x8002
  5416                           ;	unspecified, using default values
  5417  8002                     	org	32770
  5418  8002  3FFF               	dw	16383
  5419                           
  5420                           ;Config register IDLOC3 @ 0x8003
  5421                           ;	unspecified, using default values
  5422  8003                     	org	32771
  5423  8003  3FFF               	dw	16383
  5424                           
  5425                           	psect	config
  5426                           
  5427                           ;Config register CONFIG1 @ 0x8007
  5428                           ;	Oscillator Selection
  5429                           ;	FOSC = INTOSC, INTOSC oscillator: I/O function on CLKIN pin
  5430                           ;	Watchdog Timer Enable
  5431                           ;	WDTE = OFF, WDT disabled
  5432                           ;	Power-up Timer Enable
  5433                           ;	PWRTE = OFF, PWRT disabled
  5434                           ;	MCLR Pin Function Select
  5435                           ;	MCLRE = ON, MCLR/VPP pin function is MCLR
  5436                           ;	Flash Program Memory Code Protection
  5437                           ;	CP = OFF, Program memory code protection is disabled
  5438                           ;	Data Memory Code Protection
  5439                           ;	CPD = OFF, Data memory code protection is disabled
  5440                           ;	Brown-out Reset Enable
  5441                           ;	BOREN = ON, Brown-out Reset enabled
  5442                           ;	Clock Out Enable
  5443                           ;	CLKOUTEN = OFF, CLKOUT function is disabled. I/O or oscillator function on the CLKOUT 
      +                          pin
  5444                           ;	Internal/External Switchover
  5445                           ;	IESO = ON, Internal/External Switchover mode is enabled
  5446                           ;	Fail-Safe Clock Monitor Enable
  5447                           ;	FCMEN = ON, Fail-Safe Clock Monitor is enabled
  5448  8007                     	org	32775
  5449  8007  3FE4               	dw	16356
  5450                           
  5451                           ;Config register CONFIG2 @ 0x8008
  5452                           ;	Flash Memory Self-Write Protection
  5453                           ;	WRT = OFF, Write protection off
  5454                           ;	PLL Enable
  5455                           ;	PLLEN = OFF, 4x PLL disabled
  5456                           ;	Stack Overflow/Underflow Reset Enable
  5457                           ;	STVREN = ON, Stack Overflow or Underflow will cause a Reset
  5458                           ;	Brown-out Reset Voltage Selection
  5459                           ;	BORV = LO, Brown-out Reset Voltage (Vbor), low trip point selected.
  5460                           ;	Low-Voltage Programming Enable
  5461                           ;	LVP = ON, Low-voltage programming enabled
  5462  8008                     	org	32776
  5463  8008  3EFF               	dw	16127

Data Sizes:
    Strings     0
    Constant    25
    Data        0
    BSS         4
    Persistent  37
    Stack       0

Auto Spaces:
    Space          Size  Autos    Used
    COMMON           14     14      14
    BANK0            80     75      80
    BANK1            80      0       4
    BANK2            80      0       0
    BANK3            80      0       0
    BANK4            48      0       0

Pointer List with Targets:

    ADC_SetInterruptHandler@InterruptHandler	PTR FTN()void  size(2) Largest target is 1
		 -> ADC_DefaultInterruptHandler(), 

    ADC_InterruptHandler	PTR FTN()void  size(2) Largest target is 1
		 -> Absolute function(), ADC_DefaultInterruptHandler(), 


Critical Paths under _main in COMMON

    _read_battery_voltage->___xxtofl
    ___flmul->___xxtofl
    ___fldiv->___xxtofl
    _ADC_Initialize->_ADC_SetInterruptHandler

Critical Paths under _INTERRUPT_InterruptManager in COMMON

    None.

Critical Paths under _main in BANK0

    _main->_get_event
    _get_event->___flge
    _read_battery_voltage->___fldiv
    ___fldiv->___flmul
    ___flge->_read_battery_voltage

Critical Paths under _INTERRUPT_InterruptManager in BANK0

    None.

Critical Paths under _main in BANK1

    None.

Critical Paths under _INTERRUPT_InterruptManager in BANK1

    None.

Critical Paths under _main in BANK2

    None.

Critical Paths under _INTERRUPT_InterruptManager in BANK2

    None.

Critical Paths under _main in BANK3

    None.

Critical Paths under _INTERRUPT_InterruptManager in BANK3

    None.

Critical Paths under _main in BANK4

    None.

Critical Paths under _INTERRUPT_InterruptManager in BANK4

    None.

Call Graph Tables:

 ---------------------------------------------------------------------------------
 (Depth) Function   	        Calls       Base Space   Used Autos Params    Refs
 ---------------------------------------------------------------------------------
 (0) _main                                                 3     3      0    5838
                                             73 BANK0      2     2      0
                               _SEQ1
                               _SEQ2
                               _SEQ3
                               _SEQ4
                  _SYSTEM_Initialize
                          _get_event
                    _get_switch_type
 ---------------------------------------------------------------------------------
 (1) _get_switch_type                                      7     7      0     117
                                              0 COMMON     7     7      0
 ---------------------------------------------------------------------------------
 (1) _get_event                                            3     3      0    4590
                                             70 BANK0      3     3      0
                             ___flge
               _read_battery_voltage
 ---------------------------------------------------------------------------------
 (2) _read_battery_voltage                                 6     2      4    4231
                                             52 BANK0      6     2      4
            _ADC_GetConversionResult
                     _ADC_Initialize
                  _ADC_SelectChannel
                _ADC_StartConversion
                            ___fldiv
                            ___flmul
                           ___xxtofl
 ---------------------------------------------------------------------------------
 (3) ___xxtofl                                            14    10      4     398
                                              0 COMMON    14    10      4
 ---------------------------------------------------------------------------------
 (3) ___flmul                                             26    18      8    2417
                                              0 BANK0     26    18      8
                          __Umul8_16
                           ___xxtofl (ARG)
 ---------------------------------------------------------------------------------
 (4) __Umul8_16                                            9     7      2     799
                                              0 COMMON     9     7      2
 ---------------------------------------------------------------------------------
 (3) ___fldiv                                             26    18      8    1273
                                             26 BANK0     26    18      8
                            ___flmul (ARG)
                           ___xxtofl (ARG)
 ---------------------------------------------------------------------------------
 (3) _ADC_StartConversion                                  0     0      0       0
 ---------------------------------------------------------------------------------
 (3) _ADC_SelectChannel                                    2     2      0      22
                                              0 COMMON     2     2      0
 ---------------------------------------------------------------------------------
 (3) _ADC_GetConversionResult                              2     0      2       0
                                              0 COMMON     2     0      2
 ---------------------------------------------------------------------------------
 (2) ___flge                                              12     4      8     334
                                             58 BANK0     12     4      8
               _read_battery_voltage (ARG)
 ---------------------------------------------------------------------------------
 (1) _SYSTEM_Initialize                                    0     0      0      98
                     _ADC_Initialize
              _OSCILLATOR_Initialize
             _PIN_MANAGER_Initialize
                    _TMR0_Initialize
                     _WDT_Initialize
 ---------------------------------------------------------------------------------
 (2) _WDT_Initialize                                       0     0      0       0
 ---------------------------------------------------------------------------------
 (2) _TMR0_Initialize                                      1     1      0       0
                                              0 COMMON     1     1      0
 ---------------------------------------------------------------------------------
 (2) _PIN_MANAGER_Initialize                               0     0      0       0
 ---------------------------------------------------------------------------------
 (2) _OSCILLATOR_Initialize                                0     0      0       0
 ---------------------------------------------------------------------------------
 (3) _ADC_Initialize                                       0     0      0      98
            _ADC_SetInterruptHandler
 ---------------------------------------------------------------------------------
 (4) _ADC_SetInterruptHandler                              2     0      2      98
                                              0 COMMON     2     0      2
 ---------------------------------------------------------------------------------
 (1) _SEQ4                                                 4     2      2     258
                                              0 COMMON     2     0      2
 ---------------------------------------------------------------------------------
 (1) _SEQ3                                                 4     2      2     258
                                              0 COMMON     2     0      2
 ---------------------------------------------------------------------------------
 (1) _SEQ2                                                 4     2      2     258
                                              0 COMMON     2     0      2
 ---------------------------------------------------------------------------------
 (1) _SEQ1                                                 4     2      2     258
                                              0 COMMON     2     0      2
 ---------------------------------------------------------------------------------
 Estimated maximum stack depth 4
 ---------------------------------------------------------------------------------
 (Depth) Function   	        Calls       Base Space   Used Autos Params    Refs
 ---------------------------------------------------------------------------------
 (5) _INTERRUPT_InterruptManager                           0     0      0       0
                            _ADC_ISR
 ---------------------------------------------------------------------------------
 (6) _ADC_ISR                                              0     0      0       0
                   Absolute function *
        _ADC_DefaultInterruptHandler *
 ---------------------------------------------------------------------------------
 (7) _ADC_DefaultInterruptHandler                          0     0      0       0
 ---------------------------------------------------------------------------------
 (7) Absolute function(Fake)                               0     0      0       0
 ---------------------------------------------------------------------------------
 Estimated maximum stack depth 7
 ---------------------------------------------------------------------------------

 Call Graph Graphs:

 _main (ROOT)
   _SEQ1
   _SEQ2
   _SEQ3
   _SEQ4
   _SYSTEM_Initialize
     _ADC_Initialize
       _ADC_SetInterruptHandler
     _OSCILLATOR_Initialize
     _PIN_MANAGER_Initialize
     _TMR0_Initialize
     _WDT_Initialize
   _get_event
     ___flge
       _read_battery_voltage (ARG)
         _ADC_GetConversionResult
         _ADC_Initialize
         _ADC_SelectChannel
         _ADC_StartConversion
         ___fldiv
           ___flmul (ARG)
             __Umul8_16
             ___xxtofl (ARG)
           ___xxtofl (ARG)
         ___flmul
         ___xxtofl
     _read_battery_voltage
   _get_switch_type

 _INTERRUPT_InterruptManager (ROOT)
   _ADC_ISR
     Absolute function(Fake) *
     _ADC_DefaultInterruptHandler *

 Address spaces:
Name               Size   Autos  Total    Cost      Usage
BIGRAM             170      0       0       0        0.0%
EEDATA             100      0       0       0        0.0%
NULL                 0      0       0       0        0.0%
CODE                 0      0       0       0        0.0%
BITCOMMON            E      0       0       1        0.0%
BITSFR0              0      0       0       1        0.0%
SFR0                 0      0       0       1        0.0%
COMMON               E      E       E       2      100.0%
BITSFR1              0      0       0       2        0.0%
SFR1                 0      0       0       2        0.0%
BITSFR2              0      0       0       3        0.0%
SFR2                 0      0       0       3        0.0%
STACK                0      0       0       3        0.0%
BITSFR3              0      0       0       4        0.0%
SFR3                 0      0       0       4        0.0%
ABS                  0      0      62       4        0.0%
BITBANK0            50      0       0       5        0.0%
BITSFR4              0      0       0       5        0.0%
SFR4                 0      0       0       5        0.0%
BANK0               50     4B      50       6      100.0%
BITSFR5              0      0       0       6        0.0%
SFR5                 0      0       0       6        0.0%
BITBANK1            50      0       0       7        0.0%
BITSFR6              0      0       0       7        0.0%
SFR6                 0      0       0       7        0.0%
BANK1               50      0       4       8        5.0%
BITSFR7              0      0       0       8        0.0%
SFR7                 0      0       0       8        0.0%
BITBANK2            50      0       0       9        0.0%
BITSFR8              0      0       0       9        0.0%
SFR8                 0      0       0       9        0.0%
BANK2               50      0       0      10        0.0%
BITSFR9              0      0       0      10        0.0%
SFR9                 0      0       0      10        0.0%
BITBANK3            50      0       0      11        0.0%
BITSFR10             0      0       0      11        0.0%
SFR10                0      0       0      11        0.0%
BANK3               50      0       0      12        0.0%
BITSFR11             0      0       0      12        0.0%
SFR11                0      0       0      12        0.0%
BITBANK4            30      0       0      13        0.0%
BITSFR12             0      0       0      13        0.0%
SFR12                0      0       0      13        0.0%
BANK4               30      0       0      14        0.0%
BITSFR13             0      0       0      14        0.0%
SFR13                0      0       0      14        0.0%
BITSFR14             0      0       0      15        0.0%
SFR14                0      0       0      15        0.0%
DATA                 0      0      62      15        0.0%
BITSFR15             0      0       0      16        0.0%
SFR15                0      0       0      16        0.0%
BITSFR16             0      0       0      17        0.0%
SFR16                0      0       0      17        0.0%
BITSFR17             0      0       0      18        0.0%
SFR17                0      0       0      18        0.0%
BITSFR18             0      0       0      19        0.0%
SFR18                0      0       0      19        0.0%
BITSFR19             0      0       0      20        0.0%
SFR19                0      0       0      20        0.0%
BITSFR20             0      0       0      21        0.0%
SFR20                0      0       0      21        0.0%
BITSFR21             0      0       0      22        0.0%
SFR21                0      0       0      22        0.0%
BITSFR22             0      0       0      23        0.0%
SFR22                0      0       0      23        0.0%
BITSFR23             0      0       0      24        0.0%
SFR23                0      0       0      24        0.0%
BITSFR24             0      0       0      25        0.0%
SFR24                0      0       0      25        0.0%
BITSFR25             0      0       0      26        0.0%
SFR25                0      0       0      26        0.0%
BITSFR26             0      0       0      27        0.0%
SFR26                0      0       0      27        0.0%
BITSFR27             0      0       0      28        0.0%
SFR27                0      0       0      28        0.0%
BITSFR28             0      0       0      29        0.0%
SFR28                0      0       0      29        0.0%
BITSFR29             0      0       0      30        0.0%
SFR29                0      0       0      30        0.0%
BITSFR30             0      0       0      31        0.0%
SFR30                0      0       0      31        0.0%
BITSFR31             0      0       0      32        0.0%
SFR31                0      0       0      32        0.0%


Microchip Technology PIC Macro Assembler V2.36 build 20220127204148 
Symbol Table                                                                                   Sun Aug 14 09:45:59 2022

                __end_of_program_version 07EC                             ___fldiv@aexp 0053  
                           ___fldiv@bexp 0052                             ___fldiv@sign 004B  
                                     l21 0785                                       l24 07DB  
                                     l27 07EF                                       l38 07B2  
                                     l92 0795                                       l95 07BF  
                                     l98 07F2                          _timer0ReloadVal 006F  
                    __Umul8_16@word_mpld 0076                                      l200 0764  
                                    l120 07E7                                      l104 07E1  
                                    l203 0775                                      l212 074E  
                                    l220 0735                                      l215 075F  
                                    l208 074B                                      l224 0738  
                                    l232 071F                                      l227 0749  
                                    l236 0722                                      l148 071D  
                                    l245 065D                                      l253 0434  
                                    l239 0733                                      l247 0661  
                                    l191 06E4                                      l184 06AF  
                                    l257 0455                                      l602 05FA  
                                    l266 04C7                                      l258 0458  
                                    l196 0761                                      l607 0613  
                                    l800 0416                                      l802 0425  
                                    l830 026E                                      l824 01F6  
                                    l818 027A                                      l780 042E  
                                    l837 06F7                                      l862 04FF  
                                    l599 05A6                                      l839 0707  
                                    l864 0588                                      l794 03B0  
                                    l778 02D2                                      l875 0554  
                                    l876 0560                                      l868 053A  
                                    l799 03FC                                      u920 06F3  
                                    u921 06F2                                      u940 0703  
                                    u941 0702                                      u950 0289  
                                    u951 0288                                      u935 06F8  
                                    u960 028F                                      u961 028E  
                                    u970 0294                                      u971 0293  
                                    u980 02B4                                      u981 02B3  
                                    u990 02BA                                      u991 02B9  
                        __end_of_ADC_ISR 07A5          __end_of_ADC_SetInterruptHandler 07E8  
                                    wreg 0009                             ___flmul@aexp 0032  
                           ___flmul@bexp 0033             ?_ADC_DefaultInterruptHandler 0070  
                           ___flmul@sign 002D                             ___flmul@temp 0038  
                           ___flmul@prod 0034                                     l2011 05C6  
                                   l2003 0589                                     l2013 05DE  
                                   l2005 059E                                     l2101 062F  
                                   l2023 0776                                     l2015 05E2  
                                   l2007 05BA                                     l2111 0660  
                                   l2103 0639                                     l2031 06B0  
                                   l2017 0610                                     l2009 05C2  
                                   l2105 064C                                     l2041 06BF  
                                   l2033 06B4                                     l2019 0612  
                                   l2107 0650                                     l2051 06DB  
                                   l2043 06C8                                     l2035 06B4  
                                   l2131 0443                                     l2061 0767  
                                   l2109 0657                                     l2053 06E1  
                                   l2045 06CE                                     l2037 06B4  
                                   l2141 0470                                     l2133 0458  
                                   l2125 042F                                     l2063 0768  
                                   l2071 0751                                     l2055 06E3  
                                   l2047 06D4                                     l2039 06B6  
                                   l2151 04A4                                     l2143 047F  
                                   l2127 0432                                     l2073 0752  
                                   l2081 073B                                     l1601 06E8  
                                   l2049 06D5                                     l2153 04B2  
                                   l2145 0486                                     l2137 0461  
                                   l2129 0437                                     l2059 0760  
                                   l2083 073C                                     l2091 0725  
                                   l1603 06EF                                     l2155 04B8  
                                   l2147 0496                                     l2139 0468  
                                   l2069 074A                                     l2093 0726  
                                   l1621 078E                                     l1613 0786  
                                   l1701 033E                                     l1605 06F3  
                                   l2149 049C                                     l2079 0734  
                                   l1615 0789                                     l1623 07B4  
                                   l1711 035D                                     l1703 0342  
                                   l1607 06FE                                     l2089 071E  
                                   l1617 078A                                     l1625 07BE  
                                   l1721 0379                                     l1713 0365  
                                   l1705 0343                                     l1641 028A  
                                   l1633 027B                                     l1609 0703  
                                   l1801 0062                                     l2169 04CA  
                                   l2291 0741                                     l1619 078D  
                                   l1627 07F0                                     l1723 0380  
                                   l1731 0390                                     l1707 034A  
                                   l1715 0369                                     l1643 028F  
                                   l1651 029F                                     l1635 0281  
                                   l1811 007E                                     l1803 0067  
                                   l2099 0614                                     l2293 0757  
                                   l1629 07DC                                     l1733 0394  
                                   l1725 0384                                     l1717 036F  
                                   l1709 035C                                     l1661 02B5  
                                   l1653 02A7                                     l1645 0294  
                                   l1637 0285                                     l1901 0258  
                                   l1821 00A6                                     l1813 0083  
                                   l1805 006F                                     l2295 076D  
                                   l1751 03DE                                     l1743 03B5  
                                   l1735 0395                                     l1727 0385  
                                   l1719 0377                                     l1663 02BA  
                                   l1671 02CA                                     l1655 02AC  
                                   l1647 029C                                     l1639 0289  
                                   l1903 0265                                     l1831 0101  
                                   l1823 00C0                                     l1807 0071  
                                   l2287 04D0                                     l2289 072B  
                                   l1761 0415                                     l1745 03BA  
                                   l1753 03E2                                     l1737 0399  
                                   l1729 038C                                     l1673 02DA  
                                   l1681 02F3                                     l1665 02BF  
                                   l1657 02B0                                     l1649 029D  
                                   l1905 0269                                     l1841 0130  
                                   l1833 0108                                     l1825 00CD  
                                   l1817 008C                                     l1809 0079  
                                   l1921 0507                                     l1913 04DE  
                                   l1763 041B                                     l1755 03EF  
                                   l1747 03C2                                     l1739 03AD  
                                   l1691 0319                                     l1683 02F8  
                                   l1675 02E6                                     l1667 02C7  
                                   l1659 02B4                                     l1907 026A  
                                   l1851 0180                                     l1843 0144  
                                   l1835 0115                                     l1827 00E7  
                                   l1819 0099                                     l1931 0527  
                                   l1915 04E3                                     l1597 07E2  
                                   l1765 041F                                     l1757 040A  
                                   l1749 03C6                                     l1693 0321  
                                   l1677 02EA                                     l1669 02C8  
                                   l1909 0272                                     l1861 01C6  
                                   l1853 0195                                     l1845 014B  
                                   l1837 011C                                     l1829 00F4  
                                   l1781 0033                                     l1773 0024  
                                   l1941 054E                                     l1933 052B  
                                   l1925 0510                                     l1917 04E7  
                                   l1767 0421                                     l1759 040D  
                                   l1695 0329                                     l1687 0301  
                                   l1599 06E6                                     l1871 01DA  
                                   l1863 01CA                                     l1855 01AC  
                                   l1847 015F                                     l1839 0129  
                                   l1791 004F                                     l1783 0038  
                                   l1775 002A                                     l1951 057F  
                                   l1943 0558                                     l1935 0533  
                                   l1927 0515                                     l1919 04F7  
                                   l1961 070C                                     l1697 032B  
                                   l1689 0311                                     l1881 01FB  
                                   l1873 01DB                                     l1865 01CB  
                                   l1857 01B3                                     l1849 016C  
                                   l1793 0054                                     l1785 003D  
                                   l1777 002E                                     l1953 0580  
                                   l1945 0562                                     l1937 0541  
                                   l1929 0520                                     l1971 0718  
                                   l1963 070F                                     l1699 0330  
                                   l1883 0200                                     l1891 0228  
                                   l1875 01DF                                     l1867 01D2  
                                   l1859 01BF                                     l1795 0058  
                                   l1787 0045                                     l1779 0032  
                                   l1947 0576                                     l1939 054A  
                                   l1981 07D9                                     l1973 071A  
                                   l1965 0711                                     l1957 0708  
                                   l1893 0235                                     l1885 0208  
                                   l1877 01F3                                     l1869 01D6  
                                   l1797 005C                                     l1789 0047  
                                   l1949 057B                                     l1975 071C  
                                   l1967 0715                                     l1959 070A  
                                   l1991 07B1                                     l1983 07EC  
                                   l1895 023F                                     l1887 020C  
                                   l1799 005D                                     l1977 07D5  
                                   l1969 0717                                     l1985 07A5  
                                   l1897 024D                                     l1889 0224  
                                   l1993 0662                                     l1979 07D8  
                                   l1987 07AA                                     l1899 0256  
                                   l1995 0669                                     l1989 07AD  
                                   l1997 066C                                     l1999 0674  
                                   u1000 02BF                                     u1001 02BE  
                                   u1010 02DA                                     u1011 02D9  
                                   u1100 0377                                     u1020 02F8  
                                   u1101 0376                                     u1021 02F7  
                                   u1030 0330                                     u1031 032F  
                                   u1200 03D4                                     u1120 0384  
                                   u1121 0383                                     u1210 03EF  
                                   u1211 03EE                                     u1115 037A  
                                   u1220 040A                                     u1140 0394  
                                   u1060 0342                                     u1300 007E  
                                   u1221 0409                                     u1205 03D0  
                                   u1141 0393                                     u1061 0341  
                                   u1045 0331                                     u1301 007D  
                                   u1230 041F                                     u1150 0399  
                                   u1310 0083                                     u1231 041E  
                                   u1215 03EB                                     u1151 0398  
                                   u1135 0386                                     u1055 0338  
                                   u1311 0082                                     u1160 03AD  
                                   u1080 035C                                     u1400 01DA  
                                   u1240 0032                                     u1225 0406  
                                   u1161 03AC                                     u1081 035B  
                                   u1401 01D9                                     u1241 0031  
                                   u1170 03B4                                     u1090 036F  
                                   u1410 01DF                                     u1250 0038  
                                   u1171 03B3                                     u1091 036E  
                                   u1075 0344                                     u1411 01DE  
                                   u1251 0037                                     u1180 03BA  
                                   u1420 01F3                                     u1340 018B  
                                   u1260 003D                                     u1500 04E3  
                                   u1181 03B9                                     u1085 0358  
                                   u1421 01F2                                     u1325 0102  
                                   u1261 003C                                     u1501 04E2  
                                   _LATA 010C                                     u1190 03C6  
                                   u1430 01FA                                     u1350 01A2  
                                   u1270 005C                                     u1510 04E7  
                                   _LATB 010D                                     u1191 03C5  
                                   u1431 01F9                                     u1335 0131  
                                   u1271 005B                                     u1511 04E6  
                                   u1440 0200                                     u1280 0062  
                                   u1600 0558                                     u1520 0507  
                                   u1441 01FF                                     u1345 0187  
                                   u1281 0061                                     u1601 0557  
                                   u1521 0506                                     u1450 020C  
                                   u1290 0067                                     u1610 056C  
                                   u1451 020B                                     u1355 019E  
                                   u1291 0066                                     u1460 021A  
                                   u1380 01CA                                     u1620 057B  
                                   u1540 0526                                     u1700 06CE  
                                   u1381 01C9                                     u1365 01AD  
                                   u1621 057A                                     u1541 0525  
                                   u1701 06CD                                     u1470 0235  
                                   u1630 057F                                     u1710 06D4  
                                   u1471 0234                                     u1375 01C0  
                                   u1631 057E                                     u1615 0568  
                                   u1535 051A                                     u1711 06D3  
                                   u1640 059E                                     u1480 024D  
                                   u1560 0540                                     u1720 06DB  
                                   u1800 0455                                     u1641 059D  
                                   u1481 024C                                     u1465 0216  
                                   u1561 053F                                     u1721 06DA  
                                   u1801 0454                                     u1650 05BA  
                                   u1490 0269                                     u1730 06E1  
                                   u1810 0460                                     u1651 05B9  
                                   u1491 0268                                     u1475 0231  
                                   u1395 01CC                                     u1555 0534  
                                   u1731 06E0                                     u1811 045F  
                                   u1660 05C6                                     u1580 054E  
                                   u1740 062F                                     u1661 05C5  
                                   u1485 0249                                     u1581 054D  
                                   u1741 062E                                     u1670 05E2  
                                   u1590 0554                                     u1750 064C  
                                   u1671 05E1                                     u1591 0553  
                                   u1575 0544                                     u1751 064B  
                                   u1680 0610                                     u1760 0657  
                                   u1681 060F                                     u1761 0656  
                                   u1755 0648                                     u1827 046C  
                                   u1685 060C                                     u1837 047B  
                                   u1847 048A                                     u1857 04A0  
                                   u1867 04AE                                     u1877 04BC  
                                   i1l67 0017                                     _SEQ1 0760  
                                   _SEQ2 074A                                     _SEQ3 0734  
                                   _SEQ4 071E                                     _TMR0 0015  
                                   _WPUA 020C                                     _WPUB 020D  
                                   _main 042F                                     btemp 007E  
                                   start 0019                          ___fldiv@new_exp 004C  
                      _PTT_current_value 00A0                  __end_of_TMR0_Initialize 07B3  
                                  ?_SEQ1 0070                                    ?_SEQ2 0070  
                                  ?_SEQ3 0070                                    ?_SEQ4 0070  
                __end_of_get_switch_type 06E5                         nosup@@$_$_IDLOC7 0000  
          __end_of_OSCILLATOR_Initialize 07DC                                    ?_main 0070  
                        __end_of___fldiv 042F                          __end_of___flmul 027B  
                                  i1l123 07F3                                    i1l117 07A4  
                                  _TRISA 008C                                    _TRISB 008D  
                         _WDT_Initialize 07EC                                    _event 006B  
                                  pclath 000A                                    status 0003  
                                  wtemp0 007E                             __end_of_SEQ1 0776  
                           __end_of_SEQ2 0760                             __end_of_SEQ3 074A  
                           __end_of_SEQ4 0734                          __initialization 001B  
                           __end_of_main 04DD                                   ??_SEQ1 0072  
                                 ??_SEQ2 0072                                   ??_SEQ3 0072  
                                 ??_SEQ4 0072                                ??_ADC_ISR 0070  
            ?_INTERRUPT_InterruptManager 0070                                   ??_main 0069  
                 __end_of_WDT_Initialize 07F0                                   _ADCON0 009D  
                                 _ADCON1 009E                                   _ADRESH 009C  
                                 _ADRESL 009B                                   _ANSELA 018C  
                                 _ANSELB 018D                                   _BORCON 0116  
                                 i1l2025 0796                                   i1l2121 000F  
                                 i1l2027 0798                                   i1l2123 0014  
                                 i1l2029 079F                                   i1l2117 0006  
                                 i1l2119 000A                                   u169_20 079F  
                                 u177_20 000A                                   u169_21 079E  
                                 u177_21 0009                                   u178_20 000F  
                                 u178_21 000E                                   u179_20 0014  
                                 u179_21 0013                                   _OSCCON 0099  
                                 _WDTCON 0097                         __end_of___xxtofl 0589  
                                 ___flge 0589                                ??___fldiv 0042  
                              ??___flmul 0028                         ?_TMR0_Initialize 0070  
                       ?_get_switch_type 0070                     get_switch_type@port1 0073  
                   get_switch_type@port2 0075                          ?_WDT_Initialize 0070  
ADC_SetInterruptHandler@InterruptHandler 0070                               ___flge@ff1 005A  
                             ___flge@ff2 005E                             ___xxtofl@arg 007A  
                           ___xxtofl@exp 0079                        _SYSTEM_Initialize 0776  
                           ___xxtofl@val 0070                  __end_of__initialization 0020  
                     ?_SYSTEM_Initialize 0070                           __pcstackCOMMON 0070  
                    ??_SYSTEM_Initialize 0072                  _ADC_GetConversionResult 07DC  
                         _OPTION_REGbits 0095                __end_of_SYSTEM_Initialize 0786  
           __end_of_read_battery_voltage 06B0                               __pbssBANK0 006B  
                                SEQ1@set 0070                                  SEQ2@set 0070  
                                SEQ3@set 0070                                  SEQ4@set 0070  
                      __end_of__Umul8_16 0708                               __pmaintext 042F  
                                ?___flge 005A                               __pintentry 0004  
                                _ADC_ISR 0796                                  _APFCON0 011D  
                                _APFCON1 011E                                ?___xxtofl 0070  
                                _OSCTUNE 0098                     _ADC_InterruptHandler 00A2  
                _ADC_SetInterruptHandler 07E2                        __end_of_get_event 0662  
                                ___fldiv 027B                                  ___flmul 0024  
              ??_ADC_GetConversionResult 0072                                  __ptext1 06B0  
                                __ptext2 0614                                  __ptext3 0662  
                                __ptext4 04DD                                  __ptext5 0024  
                                __ptext6 06E5                                  __ptext7 027B  
                                __ptext8 07F0                                  __ptext9 07B3  
                  _OSCILLATOR_Initialize 07D5                               ??___xxtofl 0074  
               ??_PIN_MANAGER_Initialize 0070                     end_of_initialization 0020  
                   _read_battery_voltage 0662                         ??_WDT_Initialize 0070  
                              _PORTAbits 000C                                _PORTBbits 000D  
                   get_event@local_event 0068      __end_of_ADC_DefaultInterruptHandler 07F4  
            _ADC_DefaultInterruptHandler 07F3                            ___xxtofl@sign 0078  
                    _ADC_StartConversion 07F0                              ___fldiv@grs 004E  
                            ___fldiv@rem 0047                              ___flmul@grs 002E  
          ??_ADC_DefaultInterruptHandler 0070                ??_ADC_SetInterruptHandler 0072  
                   ?_ADC_StartConversion 0070                           __end_of___flge 0614  
                  ?_read_battery_voltage 0054                           _ADC_Initialize 0786  
                 ?_OSCILLATOR_Initialize 0070                      start_initialization 001B  
     read_battery_voltage@convertedValue 0058                    ??_ADC_StartConversion 0070  
                               ??___flge 0062                   __end_of_ADC_Initialize 0796  
                              __Umul8_16 06E5                                 ?_ADC_ISR 0070  
                              ___fldiv@a 003A                                ___fldiv@b 003E  
                              ___flmul@a 0024                                ___flmul@b 0020  
                              ___latbits 0001                            __pcstackBANK0 0020  
                              __pnvBANK0 006F                                __pnvBANK1 00A0  
                 _PIN_MANAGER_Initialize 0708                        _ADC_SelectChannel 07B3  
                 ??_read_battery_voltage 007E                                 ?___fldiv 003A  
                               ?___flmul 0020                               ?__Umul8_16 0070  
                        ?_ADC_Initialize 0070                       ?_ADC_SelectChannel 0070  
                              _get_event 0614             ??_INTERRUPT_InterruptManager 0070  
                    ??_ADC_SelectChannel 0070                        ??_TMR0_Initialize 0070  
                      ??_get_switch_type 0070                                 _LATBbits 010D  
                               _PIE1bits 0091                __end_of_ADC_SelectChannel 07C0  
                               _PIR1bits 0011                     __end_of_program_date 07CB  
                   __end_of_program_name 07D5                               ?_get_event 0070  
                             _ADCON0bits 009D                 ADC_SelectChannel@channel 0071  
               ?_ADC_GetConversionResult 0070                  ??_OSCILLATOR_Initialize 0070  
                            ??__Umul8_16 0072                                 ___xxtofl 04DD  
                               __ptext10 07DC                                 __ptext11 0589  
                               __ptext20 0734                                 __ptext12 0776  
                               __ptext21 074A                                 __ptext13 07EC  
                               __ptext22 0760                                 __ptext14 07A5  
                               __ptext15 0708                                 __ptext24 0796  
                               __ptext16 07D5                                 __ptext25 07F3  
                               __ptext17 0786                                 __ptext18 07E2  
                               __ptext19 071E                                 _newevent 006D  
                               int$flags 007E       __end_of_INTERRUPT_InterruptManager 0019  
             _INTERRUPT_InterruptManager 0004                              ??_get_event 0066  
                        _program_version 07E8                               _INTCONbits 000B  
               ?_ADC_SetInterruptHandler 0070                                 intlevel1 0000  
            __end_of_ADC_StartConversion 07F3                  ?_PIN_MANAGER_Initialize 0070  
        __end_of_ADC_GetConversionResult 07E2                         ??_ADC_Initialize 0072  
           get_switch_type@switch_status 0072                            __pstringtext1 07C0  
                          __pstringtext2 07CB                            __pstringtext3 07E8  
                 __Umul8_16@multiplicand 0070                               _OPTION_REG 0095  
                        _TMR0_Initialize 07A5                          _get_switch_type 06B0  
         __end_of_PIN_MANAGER_Initialize 071E                             _program_date 07C0  
                           _program_name 07CB                     __Umul8_16@multiplier 0078  
                      __Umul8_16@product 0074  
